ARM GAS  C:\Users\JOHNNY~1\AppData\Local\Temp\ccZ1h7QL.s 			page 1


   1              		.cpu cortex-m0
   2              		.fpu softvfp
   3              		.eabi_attribute 20, 1
   4              		.eabi_attribute 21, 1
   5              		.eabi_attribute 23, 3
   6              		.eabi_attribute 24, 1
   7              		.eabi_attribute 25, 1
   8              		.eabi_attribute 26, 1
   9              		.eabi_attribute 30, 6
  10              		.eabi_attribute 34, 0
  11              		.eabi_attribute 18, 4
  12              		.code	16
  13              		.file	"Battery.c"
  14              		.text
  15              	.Ltext0:
  16              		.cfi_sections	.debug_frame
  17              		.bss
  18              		.align	1
  19              	batteryLevelmVolts:
  20 0000 0000     		.space	2
  21              		.global	__aeabi_idiv
  22              		.section	.text.MeasureBattery,"ax",%progbits
  23              		.align	2
  24              		.global	MeasureBattery
  25              		.code	16
  26              		.thumb_func
  27              		.type	MeasureBattery, %function
  28              	MeasureBattery:
  29              	.LFB37:
  30              		.file 1 ".\\Battery.c"
   1:.\Battery.c   **** /******************************************************************************
   2:.\Battery.c   **** * Project Name      : PSoC_4_BLE_Eddystone
   3:.\Battery.c   **** * File Name         : Battery.c
   4:.\Battery.c   **** * Version           : 1.0
   5:.\Battery.c   **** * Device Used       : CY8C4247LQI-BL483
   6:.\Battery.c   **** * Software Used     : PSoC Creator 3.3 SP1
   7:.\Battery.c   **** * Compiler          : ARM GCC 4.9.3, ARM MDK Generic
   8:.\Battery.c   **** * Related Hardware  : CY8CKIT-042-BLE Bluetooth Low Energy Pioneer Kit
   9:.\Battery.c   **** * Owner             : DEJO
  10:.\Battery.c   **** *
  11:.\Battery.c   **** ********************************************************************************
  12:.\Battery.c   **** * Copyright (2016), Cypress Semiconductor Corporation. All Rights Reserved.
  13:.\Battery.c   **** ********************************************************************************
  14:.\Battery.c   **** * This software is owned by Cypress Semiconductor Corporation (Cypress)
  15:.\Battery.c   **** * and is protected by and subject to worldwide patent protection (United
  16:.\Battery.c   **** * States and foreign), United States copyright laws and international treaty
  17:.\Battery.c   **** * provisions. Cypress hereby grants to licensee a personal, non-exclusive,
  18:.\Battery.c   **** * non-transferable license to copy, use, modify, create derivative works of,
  19:.\Battery.c   **** * and compile the Cypress Source Code and derivative works for the sole
  20:.\Battery.c   **** * purpose of creating custom software in support of licensee product to be
  21:.\Battery.c   **** * used only in conjunction with a Cypress integrated circuit as specified in
  22:.\Battery.c   **** * the applicable agreement. Any reproduction, modification, translation,
  23:.\Battery.c   **** * compilation, or representation of this software except as specified above
  24:.\Battery.c   **** * is prohibited without the express written permission of Cypress.
  25:.\Battery.c   **** *
  26:.\Battery.c   **** * Disclaimer: CYPRESS MAKES NO WARRANTY OF ANY KIND, EXPRESS OR IMPLIED, WITH
  27:.\Battery.c   **** * REGARD TO THIS MATERIAL, INCLUDING, BUT NOT LIMITED TO, THE IMPLIED
ARM GAS  C:\Users\JOHNNY~1\AppData\Local\Temp\ccZ1h7QL.s 			page 2


  28:.\Battery.c   **** * WARRANTIES OF MERCHANTABILITY AND FITNESS FOR A PARTICULAR PURPOSE.
  29:.\Battery.c   **** * Cypress reserves the right to make changes without further notice to the
  30:.\Battery.c   **** * materials described herein. Cypress does not assume any liability arising out
  31:.\Battery.c   **** * of the application or use of any product or circuit described herein. Cypress
  32:.\Battery.c   **** * does not authorize its products for use as critical components in life-support
  33:.\Battery.c   **** * systems where a malfunction or failure may reasonably be expected to result in
  34:.\Battery.c   **** * significant injury to the user. The inclusion of Cypress' product in a life-
  35:.\Battery.c   **** * support systems application implies that the manufacturer assumes all risk of
  36:.\Battery.c   **** * such use and in doing so indemnifies Cypress against all charges.
  37:.\Battery.c   **** *
  38:.\Battery.c   **** * Use of this Software may be limited by and subject to the applicable Cypress
  39:.\Battery.c   **** * software license agreement.
  40:.\Battery.c   **** *******************************************************************************/
  41:.\Battery.c   **** #include "main.h"
  42:.\Battery.c   **** #include "Battery.h"
  43:.\Battery.c   **** #include "WatchdogTimer.h"
  44:.\Battery.c   **** 
  45:.\Battery.c   **** /* Stores measured battery voltage in mV */
  46:.\Battery.c   **** static uint16 batteryLevelmVolts;
  47:.\Battery.c   **** 
  48:.\Battery.c   **** /*******************************************************************************
  49:.\Battery.c   **** * Function Name: MeasureBattery
  50:.\Battery.c   **** ********************************************************************************
  51:.\Battery.c   **** *
  52:.\Battery.c   **** * Summary:
  53:.\Battery.c   **** *   This function measures the battery voltage and stores it.
  54:.\Battery.c   **** *
  55:.\Battery.c   **** * Parameters:
  56:.\Battery.c   **** *  None
  57:.\Battery.c   **** *
  58:.\Battery.c   **** * Return:
  59:.\Battery.c   **** *  None
  60:.\Battery.c   **** *
  61:.\Battery.c   **** *******************************************************************************/
  62:.\Battery.c   **** void MeasureBattery(void)
  63:.\Battery.c   **** {
  31              		.loc 1 63 0
  32              		.cfi_startproc
  33 0000 90B5     		push	{r4, r7, lr}
  34              		.cfi_def_cfa_offset 12
  35              		.cfi_offset 4, -12
  36              		.cfi_offset 7, -8
  37              		.cfi_offset 14, -4
  38 0002 83B0     		sub	sp, sp, #12
  39              		.cfi_def_cfa_offset 24
  40 0004 00AF     		add	r7, sp, #0
  41              		.cfi_def_cfa_register 7
  64:.\Battery.c   ****     int16   adcResult;
  65:.\Battery.c   ****     uint32  sarControlReg;
  66:.\Battery.c   **** 
  67:.\Battery.c   ****     /* Wakeup ADC from sleep for measurements. */
  68:.\Battery.c   ****     ADC_Wakeup();
  42              		.loc 1 68 0
  43 0006 FFF7FEFF 		bl	ADC_Wakeup
  69:.\Battery.c   **** 
  70:.\Battery.c   ****     /* Set the reference to 1.024V and enable reference bypass */
  71:.\Battery.c   ****     sarControlReg = ADC_SAR_CTRL_REG & ~ADC_VREF_MASK;
ARM GAS  C:\Users\JOHNNY~1\AppData\Local\Temp\ccZ1h7QL.s 			page 3


  44              		.loc 1 71 0
  45 000a 204B     		ldr	r3, .L2
  46 000c 1B68     		ldr	r3, [r3]
  47 000e F022     		mov	r2, #240
  48 0010 9343     		bic	r3, r2
  49 0012 7B60     		str	r3, [r7, #4]
  72:.\Battery.c   ****     ADC_SAR_CTRL_REG = sarControlReg | ADC_VREF_INTERNAL1024BYPASSED;
  50              		.loc 1 72 0
  51 0014 1D4B     		ldr	r3, .L2
  52 0016 7A68     		ldr	r2, [r7, #4]
  53 0018 C021     		mov	r1, #192
  54 001a 0A43     		orr	r2, r1
  55 001c 1A60     		str	r2, [r3]
  73:.\Battery.c   **** 
  74:.\Battery.c   ****     /* 25 ms delay for reference capacitor to charge */
  75:.\Battery.c   ****     LowPowerWait(REFERENCE_CAPACITOR_CHARGE_TIME);
  56              		.loc 1 75 0
  57 001e 1C4B     		ldr	r3, .L2+4
  58 0020 181C     		mov	r0, r3
  59 0022 FFF7FEFF 		bl	LowPowerWait
  76:.\Battery.c   **** 
  77:.\Battery.c   ****     /* Set the reference to VDD and disable reference bypass */
  78:.\Battery.c   ****     sarControlReg = ADC_SAR_CTRL_REG & ~ADC_VREF_MASK;
  60              		.loc 1 78 0
  61 0026 194B     		ldr	r3, .L2
  62 0028 1B68     		ldr	r3, [r3]
  63 002a F022     		mov	r2, #240
  64 002c 9343     		bic	r3, r2
  65 002e 7B60     		str	r3, [r7, #4]
  79:.\Battery.c   ****     ADC_SAR_CTRL_REG = sarControlReg | ADC_VREF_VDDA;
  66              		.loc 1 79 0
  67 0030 164B     		ldr	r3, .L2
  68 0032 7A68     		ldr	r2, [r7, #4]
  69 0034 7021     		mov	r1, #112
  70 0036 0A43     		orr	r2, r1
  71 0038 1A60     		str	r2, [r3]
  80:.\Battery.c   **** 
  81:.\Battery.c   ****     /* Perform a measurement. Store this value in Vref. */
  82:.\Battery.c   ****     LowPowerWait(VDD_REFERENCE_SWITCH_PERIOD);
  72              		.loc 1 82 0
  73 003a 2020     		mov	r0, #32
  74 003c FFF7FEFF 		bl	LowPowerWait
  83:.\Battery.c   ****     ADC_StartConvert();
  75              		.loc 1 83 0
  76 0040 FFF7FEFF 		bl	ADC_StartConvert
  84:.\Battery.c   ****     ADC_IsEndConversion(ADC_WAIT_FOR_RESULT);
  77              		.loc 1 84 0
  78 0044 0220     		mov	r0, #2
  79 0046 FFF7FEFF 		bl	ADC_IsEndConversion
  85:.\Battery.c   **** 
  86:.\Battery.c   ****     /* Set the reference to 1.024V and enable reference bypass */
  87:.\Battery.c   ****     sarControlReg = ADC_SAR_CTRL_REG & ~ADC_VREF_MASK;
  80              		.loc 1 87 0
  81 004a 104B     		ldr	r3, .L2
  82 004c 1B68     		ldr	r3, [r3]
  83 004e F022     		mov	r2, #240
  84 0050 9343     		bic	r3, r2
ARM GAS  C:\Users\JOHNNY~1\AppData\Local\Temp\ccZ1h7QL.s 			page 4


  85 0052 7B60     		str	r3, [r7, #4]
  88:.\Battery.c   ****     ADC_SAR_CTRL_REG = sarControlReg | ADC_VREF_INTERNAL1024BYPASSED;
  86              		.loc 1 88 0
  87 0054 0D4B     		ldr	r3, .L2
  88 0056 7A68     		ldr	r2, [r7, #4]
  89 0058 C021     		mov	r1, #192
  90 005a 0A43     		orr	r2, r1
  91 005c 1A60     		str	r2, [r3]
  89:.\Battery.c   **** 
  90:.\Battery.c   ****     adcResult = ADC_GetResult16(ADC_BATTERY_CHANNEL);
  92              		.loc 1 90 0
  93 005e BC1C     		add	r4, r7, #2
  94 0060 0020     		mov	r0, #0
  95 0062 FFF7FEFF 		bl	ADC_GetResult16
  96 0066 031C     		mov	r3, r0
  97 0068 2380     		strh	r3, [r4]
  91:.\Battery.c   ****     /* Calculate input voltage by using ratio of ADC counts from reference
  92:.\Battery.c   ****     *  and ADC Full Scale counts. */
  93:.\Battery.c   ****     batteryLevelmVolts = ((1024 * 2048) / adcResult) ;
  98              		.loc 1 93 0
  99 006a BB1C     		add	r3, r7, #2
 100 006c 0022     		mov	r2, #0
 101 006e 9A5E     		ldrsh	r2, [r3, r2]
 102 0070 8023     		mov	r3, #128
 103 0072 9803     		lsl	r0, r3, #14
 104 0074 111C     		mov	r1, r2
 105 0076 FFF7FEFF 		bl	__aeabi_idiv
 106 007a 031C     		mov	r3, r0
 107 007c 9AB2     		uxth	r2, r3
 108 007e 054B     		ldr	r3, .L2+8
 109 0080 1A80     		strh	r2, [r3]
  94:.\Battery.c   **** 
  95:.\Battery.c   ****     /* Put ADC to sleep after measurements are done. */
  96:.\Battery.c   ****     ADC_Sleep();
 110              		.loc 1 96 0
 111 0082 FFF7FEFF 		bl	ADC_Sleep
  97:.\Battery.c   **** }
 112              		.loc 1 97 0
 113 0086 BD46     		mov	sp, r7
 114 0088 03B0     		add	sp, sp, #12
 115              		@ sp needed
 116 008a 90BD     		pop	{r4, r7, pc}
 117              	.L3:
 118              		.align	2
 119              	.L2:
 120 008c 00003A40 		.word	1077542912
 121 0090 33030000 		.word	819
 122 0094 00000000 		.word	batteryLevelmVolts
 123              		.cfi_endproc
 124              	.LFE37:
 125              		.size	MeasureBattery, .-MeasureBattery
 126              		.section	.text.GetMeasuredBatteryVoltage,"ax",%progbits
 127              		.align	2
 128              		.global	GetMeasuredBatteryVoltage
 129              		.code	16
 130              		.thumb_func
 131              		.type	GetMeasuredBatteryVoltage, %function
ARM GAS  C:\Users\JOHNNY~1\AppData\Local\Temp\ccZ1h7QL.s 			page 5


 132              	GetMeasuredBatteryVoltage:
 133              	.LFB38:
  98:.\Battery.c   **** 
  99:.\Battery.c   **** /*******************************************************************************
 100:.\Battery.c   **** * Function Name: GetMeasuredBatteryVoltage
 101:.\Battery.c   **** ********************************************************************************
 102:.\Battery.c   **** *
 103:.\Battery.c   **** * Summary:
 104:.\Battery.c   **** *   This function returns currently measured voltage.
 105:.\Battery.c   **** *
 106:.\Battery.c   **** * Parameters:
 107:.\Battery.c   **** *  None
 108:.\Battery.c   **** *
 109:.\Battery.c   **** * Return:
 110:.\Battery.c   **** *  uint16: currently measured battery voltage
 111:.\Battery.c   **** *
 112:.\Battery.c   **** *******************************************************************************/
 113:.\Battery.c   **** uint16 GetMeasuredBatteryVoltage(void)
 114:.\Battery.c   **** {
 134              		.loc 1 114 0
 135              		.cfi_startproc
 136 0000 80B5     		push	{r7, lr}
 137              		.cfi_def_cfa_offset 8
 138              		.cfi_offset 7, -8
 139              		.cfi_offset 14, -4
 140 0002 00AF     		add	r7, sp, #0
 141              		.cfi_def_cfa_register 7
 115:.\Battery.c   ****     return batteryLevelmVolts;
 142              		.loc 1 115 0
 143 0004 024B     		ldr	r3, .L6
 144 0006 1B88     		ldrh	r3, [r3]
 116:.\Battery.c   **** }
 145              		.loc 1 116 0
 146 0008 181C     		mov	r0, r3
 147 000a BD46     		mov	sp, r7
 148              		@ sp needed
 149 000c 80BD     		pop	{r7, pc}
 150              	.L7:
 151 000e C046     		.align	2
 152              	.L6:
 153 0010 00000000 		.word	batteryLevelmVolts
 154              		.cfi_endproc
 155              	.LFE38:
 156              		.size	GetMeasuredBatteryVoltage, .-GetMeasuredBatteryVoltage
 157              		.text
 158              	.Letext0:
 159              		.file 2 "Generated_Source\\PSoC4/cytypes.h"
 160              		.file 3 "Generated_Source\\PSoC4/BLE_Stack.h"