ARM GAS  C:\Users\JOHNNY~1\AppData\Local\Temp\cc7joSo9.s 			page 1


   1              		.cpu cortex-m0
   2              		.fpu softvfp
   3              		.eabi_attribute 20, 1
   4              		.eabi_attribute 21, 1
   5              		.eabi_attribute 23, 3
   6              		.eabi_attribute 24, 1
   7              		.eabi_attribute 25, 1
   8              		.eabi_attribute 26, 1
   9              		.eabi_attribute 30, 6
  10              		.eabi_attribute 34, 0
  11              		.eabi_attribute 18, 4
  12              		.code	16
  13              		.file	"cyfitter_cfg.c"
  14              		.text
  15              	.Ltext0:
  16              		.cfi_sections	.debug_frame
  17              		.section	.text.CYMEMZERO,"ax",%progbits
  18              		.align	2
  19              		.code	16
  20              		.thumb_func
  21              		.type	CYMEMZERO, %function
  22              	CYMEMZERO:
  23              	.LFB2:
  24              		.file 1 ".\\Generated_Source\\PSoC4\\cyfitter_cfg.c"
   1:.\Generated_Source\PSoC4/cyfitter_cfg.c **** /*******************************************************************************
   2:.\Generated_Source\PSoC4/cyfitter_cfg.c **** * File Name: cyfitter_cfg.c
   3:.\Generated_Source\PSoC4/cyfitter_cfg.c **** * 
   4:.\Generated_Source\PSoC4/cyfitter_cfg.c **** * PSoC Creator  3.3 CP2
   5:.\Generated_Source\PSoC4/cyfitter_cfg.c **** *
   6:.\Generated_Source\PSoC4/cyfitter_cfg.c **** * Description:
   7:.\Generated_Source\PSoC4/cyfitter_cfg.c **** * This file contains device initialization code.
   8:.\Generated_Source\PSoC4/cyfitter_cfg.c **** * Except for the user defined sections in CyClockStartupError(), this file should not be modified.
   9:.\Generated_Source\PSoC4/cyfitter_cfg.c **** * This file is automatically generated by PSoC Creator.
  10:.\Generated_Source\PSoC4/cyfitter_cfg.c **** *
  11:.\Generated_Source\PSoC4/cyfitter_cfg.c **** ********************************************************************************
  12:.\Generated_Source\PSoC4/cyfitter_cfg.c **** * Copyright (c) 2007-2015 Cypress Semiconductor.  All rights reserved.
  13:.\Generated_Source\PSoC4/cyfitter_cfg.c **** * You may use this file only in accordance with the license, terms, conditions, 
  14:.\Generated_Source\PSoC4/cyfitter_cfg.c **** * disclaimers, and limitations in the end user license agreement accompanying 
  15:.\Generated_Source\PSoC4/cyfitter_cfg.c **** * the software package with which this file was provided.
  16:.\Generated_Source\PSoC4/cyfitter_cfg.c **** ********************************************************************************/
  17:.\Generated_Source\PSoC4/cyfitter_cfg.c **** 
  18:.\Generated_Source\PSoC4/cyfitter_cfg.c **** #include <string.h>
  19:.\Generated_Source\PSoC4/cyfitter_cfg.c **** #include "cytypes.h"
  20:.\Generated_Source\PSoC4/cyfitter_cfg.c **** #include "cydevice_trm.h"
  21:.\Generated_Source\PSoC4/cyfitter_cfg.c **** #include "cyfitter.h"
  22:.\Generated_Source\PSoC4/cyfitter_cfg.c **** #include "CyLib.h"
  23:.\Generated_Source\PSoC4/cyfitter_cfg.c **** #include "cyfitter_cfg.h"
  24:.\Generated_Source\PSoC4/cyfitter_cfg.c **** 
  25:.\Generated_Source\PSoC4/cyfitter_cfg.c **** 
  26:.\Generated_Source\PSoC4/cyfitter_cfg.c **** #if defined(__GNUC__) || defined(__ARMCC_VERSION)
  27:.\Generated_Source\PSoC4/cyfitter_cfg.c ****     #define CYPACKED 
  28:.\Generated_Source\PSoC4/cyfitter_cfg.c ****     #define CYPACKED_ATTR __attribute__ ((packed))
  29:.\Generated_Source\PSoC4/cyfitter_cfg.c ****     #define CYALIGNED __attribute__ ((aligned))
  30:.\Generated_Source\PSoC4/cyfitter_cfg.c ****     #define CY_CFG_UNUSED __attribute__ ((unused))
  31:.\Generated_Source\PSoC4/cyfitter_cfg.c ****     #ifndef CY_CFG_SECTION
  32:.\Generated_Source\PSoC4/cyfitter_cfg.c ****         #define CY_CFG_SECTION __attribute__ ((section(".psocinit")))
  33:.\Generated_Source\PSoC4/cyfitter_cfg.c ****     #endif
ARM GAS  C:\Users\JOHNNY~1\AppData\Local\Temp\cc7joSo9.s 			page 2


  34:.\Generated_Source\PSoC4/cyfitter_cfg.c ****     
  35:.\Generated_Source\PSoC4/cyfitter_cfg.c ****     #if defined(__ARMCC_VERSION)
  36:.\Generated_Source\PSoC4/cyfitter_cfg.c ****         #define CY_CFG_MEMORY_BARRIER() __memory_changed()
  37:.\Generated_Source\PSoC4/cyfitter_cfg.c ****     #else
  38:.\Generated_Source\PSoC4/cyfitter_cfg.c ****         #define CY_CFG_MEMORY_BARRIER() __sync_synchronize()
  39:.\Generated_Source\PSoC4/cyfitter_cfg.c ****     #endif
  40:.\Generated_Source\PSoC4/cyfitter_cfg.c ****     
  41:.\Generated_Source\PSoC4/cyfitter_cfg.c **** #elif defined(__ICCARM__)
  42:.\Generated_Source\PSoC4/cyfitter_cfg.c ****     #include <intrinsics.h>
  43:.\Generated_Source\PSoC4/cyfitter_cfg.c **** 
  44:.\Generated_Source\PSoC4/cyfitter_cfg.c ****     #define CYPACKED __packed
  45:.\Generated_Source\PSoC4/cyfitter_cfg.c ****     #define CYPACKED_ATTR 
  46:.\Generated_Source\PSoC4/cyfitter_cfg.c ****     #define CYALIGNED _Pragma("data_alignment=4")
  47:.\Generated_Source\PSoC4/cyfitter_cfg.c ****     #define CY_CFG_UNUSED _Pragma("diag_suppress=Pe177")
  48:.\Generated_Source\PSoC4/cyfitter_cfg.c ****     #define CY_CFG_SECTION _Pragma("location=\".psocinit\"")
  49:.\Generated_Source\PSoC4/cyfitter_cfg.c ****     
  50:.\Generated_Source\PSoC4/cyfitter_cfg.c ****     #define CY_CFG_MEMORY_BARRIER() __DMB()
  51:.\Generated_Source\PSoC4/cyfitter_cfg.c ****     
  52:.\Generated_Source\PSoC4/cyfitter_cfg.c **** #else
  53:.\Generated_Source\PSoC4/cyfitter_cfg.c ****     #error Unsupported toolchain
  54:.\Generated_Source\PSoC4/cyfitter_cfg.c **** #endif
  55:.\Generated_Source\PSoC4/cyfitter_cfg.c **** 
  56:.\Generated_Source\PSoC4/cyfitter_cfg.c **** 
  57:.\Generated_Source\PSoC4/cyfitter_cfg.c **** CY_CFG_UNUSED
  58:.\Generated_Source\PSoC4/cyfitter_cfg.c **** static void CYMEMZERO(void *s, size_t n);
  59:.\Generated_Source\PSoC4/cyfitter_cfg.c **** CY_CFG_UNUSED
  60:.\Generated_Source\PSoC4/cyfitter_cfg.c **** static void CYMEMZERO(void *s, size_t n)
  61:.\Generated_Source\PSoC4/cyfitter_cfg.c **** {
  25              		.loc 1 61 0
  26              		.cfi_startproc
  27 0000 80B5     		push	{r7, lr}
  28              		.cfi_def_cfa_offset 8
  29              		.cfi_offset 7, -8
  30              		.cfi_offset 14, -4
  31 0002 82B0     		sub	sp, sp, #8
  32              		.cfi_def_cfa_offset 16
  33 0004 00AF     		add	r7, sp, #0
  34              		.cfi_def_cfa_register 7
  35 0006 7860     		str	r0, [r7, #4]
  36 0008 3960     		str	r1, [r7]
  62:.\Generated_Source\PSoC4/cyfitter_cfg.c **** 	(void)memset(s, 0, n);
  37              		.loc 1 62 0
  38 000a 7A68     		ldr	r2, [r7, #4]
  39 000c 3B68     		ldr	r3, [r7]
  40 000e 101C     		mov	r0, r2
  41 0010 0021     		mov	r1, #0
  42 0012 1A1C     		mov	r2, r3
  43 0014 FFF7FEFF 		bl	memset
  63:.\Generated_Source\PSoC4/cyfitter_cfg.c **** }
  44              		.loc 1 63 0
  45 0018 BD46     		mov	sp, r7
  46 001a 02B0     		add	sp, sp, #8
  47              		@ sp needed
  48 001c 80BD     		pop	{r7, pc}
  49              		.cfi_endproc
  50              	.LFE2:
  51              		.size	CYMEMZERO, .-CYMEMZERO
ARM GAS  C:\Users\JOHNNY~1\AppData\Local\Temp\cc7joSo9.s 			page 3


  52 001e C046     		.section	.text.CYCONFIGCPY,"ax",%progbits
  53              		.align	2
  54              		.code	16
  55              		.thumb_func
  56              		.type	CYCONFIGCPY, %function
  57              	CYCONFIGCPY:
  58              	.LFB3:
  64:.\Generated_Source\PSoC4/cyfitter_cfg.c **** CY_CFG_UNUSED
  65:.\Generated_Source\PSoC4/cyfitter_cfg.c **** static void CYCONFIGCPY(void *dest, const void *src, size_t n);
  66:.\Generated_Source\PSoC4/cyfitter_cfg.c **** CY_CFG_UNUSED
  67:.\Generated_Source\PSoC4/cyfitter_cfg.c **** static void CYCONFIGCPY(void *dest, const void *src, size_t n)
  68:.\Generated_Source\PSoC4/cyfitter_cfg.c **** {
  59              		.loc 1 68 0
  60              		.cfi_startproc
  61 0000 80B5     		push	{r7, lr}
  62              		.cfi_def_cfa_offset 8
  63              		.cfi_offset 7, -8
  64              		.cfi_offset 14, -4
  65 0002 84B0     		sub	sp, sp, #16
  66              		.cfi_def_cfa_offset 24
  67 0004 00AF     		add	r7, sp, #0
  68              		.cfi_def_cfa_register 7
  69 0006 F860     		str	r0, [r7, #12]
  70 0008 B960     		str	r1, [r7, #8]
  71 000a 7A60     		str	r2, [r7, #4]
  69:.\Generated_Source\PSoC4/cyfitter_cfg.c **** 	(void)memcpy(dest, src, n);
  72              		.loc 1 69 0
  73 000c F968     		ldr	r1, [r7, #12]
  74 000e BA68     		ldr	r2, [r7, #8]
  75 0010 7B68     		ldr	r3, [r7, #4]
  76 0012 081C     		mov	r0, r1
  77 0014 111C     		mov	r1, r2
  78 0016 1A1C     		mov	r2, r3
  79 0018 FFF7FEFF 		bl	memcpy
  70:.\Generated_Source\PSoC4/cyfitter_cfg.c **** }
  80              		.loc 1 70 0
  81 001c BD46     		mov	sp, r7
  82 001e 04B0     		add	sp, sp, #16
  83              		@ sp needed
  84 0020 80BD     		pop	{r7, pc}
  85              		.cfi_endproc
  86              	.LFE3:
  87              		.size	CYCONFIGCPY, .-CYCONFIGCPY
  88 0022 C046     		.section	.text.CYCONFIGCPYCODE,"ax",%progbits
  89              		.align	2
  90              		.code	16
  91              		.thumb_func
  92              		.type	CYCONFIGCPYCODE, %function
  93              	CYCONFIGCPYCODE:
  94              	.LFB4:
  71:.\Generated_Source\PSoC4/cyfitter_cfg.c **** CY_CFG_UNUSED
  72:.\Generated_Source\PSoC4/cyfitter_cfg.c **** static void CYCONFIGCPYCODE(void *dest, const void *src, size_t n);
  73:.\Generated_Source\PSoC4/cyfitter_cfg.c **** CY_CFG_UNUSED
  74:.\Generated_Source\PSoC4/cyfitter_cfg.c **** static void CYCONFIGCPYCODE(void *dest, const void *src, size_t n)
  75:.\Generated_Source\PSoC4/cyfitter_cfg.c **** {
  95              		.loc 1 75 0
  96              		.cfi_startproc
ARM GAS  C:\Users\JOHNNY~1\AppData\Local\Temp\cc7joSo9.s 			page 4


  97 0000 80B5     		push	{r7, lr}
  98              		.cfi_def_cfa_offset 8
  99              		.cfi_offset 7, -8
 100              		.cfi_offset 14, -4
 101 0002 84B0     		sub	sp, sp, #16
 102              		.cfi_def_cfa_offset 24
 103 0004 00AF     		add	r7, sp, #0
 104              		.cfi_def_cfa_register 7
 105 0006 F860     		str	r0, [r7, #12]
 106 0008 B960     		str	r1, [r7, #8]
 107 000a 7A60     		str	r2, [r7, #4]
  76:.\Generated_Source\PSoC4/cyfitter_cfg.c **** 	(void)memcpy(dest, src, n);
 108              		.loc 1 76 0
 109 000c F968     		ldr	r1, [r7, #12]
 110 000e BA68     		ldr	r2, [r7, #8]
 111 0010 7B68     		ldr	r3, [r7, #4]
 112 0012 081C     		mov	r0, r1
 113 0014 111C     		mov	r1, r2
 114 0016 1A1C     		mov	r2, r3
 115 0018 FFF7FEFF 		bl	memcpy
  77:.\Generated_Source\PSoC4/cyfitter_cfg.c **** }
 116              		.loc 1 77 0
 117 001c BD46     		mov	sp, r7
 118 001e 04B0     		add	sp, sp, #16
 119              		@ sp needed
 120 0020 80BD     		pop	{r7, pc}
 121              		.cfi_endproc
 122              	.LFE4:
 123              		.size	CYCONFIGCPYCODE, .-CYCONFIGCPYCODE
 124 0022 C046     		.section	.text.cfg_write_bytes32,"ax",%progbits
 125              		.align	2
 126              		.code	16
 127              		.thumb_func
 128              		.type	cfg_write_bytes32, %function
 129              	cfg_write_bytes32:
 130              	.LFB5:
  78:.\Generated_Source\PSoC4/cyfitter_cfg.c **** 
  79:.\Generated_Source\PSoC4/cyfitter_cfg.c **** 
  80:.\Generated_Source\PSoC4/cyfitter_cfg.c **** 
  81:.\Generated_Source\PSoC4/cyfitter_cfg.c **** /* Clock startup error codes                                                   */
  82:.\Generated_Source\PSoC4/cyfitter_cfg.c **** #define CYCLOCKSTART_NO_ERROR    0u
  83:.\Generated_Source\PSoC4/cyfitter_cfg.c **** #define CYCLOCKSTART_XTAL_ERROR  1u
  84:.\Generated_Source\PSoC4/cyfitter_cfg.c **** #define CYCLOCKSTART_32KHZ_ERROR 2u
  85:.\Generated_Source\PSoC4/cyfitter_cfg.c **** #define CYCLOCKSTART_PLL_ERROR   3u
  86:.\Generated_Source\PSoC4/cyfitter_cfg.c **** 
  87:.\Generated_Source\PSoC4/cyfitter_cfg.c **** #ifdef CY_NEED_CYCLOCKSTARTUPERROR
  88:.\Generated_Source\PSoC4/cyfitter_cfg.c **** /*******************************************************************************
  89:.\Generated_Source\PSoC4/cyfitter_cfg.c **** * Function Name: CyClockStartupError
  90:.\Generated_Source\PSoC4/cyfitter_cfg.c **** ********************************************************************************
  91:.\Generated_Source\PSoC4/cyfitter_cfg.c **** * Summary:
  92:.\Generated_Source\PSoC4/cyfitter_cfg.c **** *  If an error is encountered during clock configuration (crystal startup error,
  93:.\Generated_Source\PSoC4/cyfitter_cfg.c **** *  PLL lock error, etc.), the system will end up here.  Unless reimplemented by
  94:.\Generated_Source\PSoC4/cyfitter_cfg.c **** *  the customer, this function will stop in an infinite loop.
  95:.\Generated_Source\PSoC4/cyfitter_cfg.c **** *
  96:.\Generated_Source\PSoC4/cyfitter_cfg.c **** * Parameters:
  97:.\Generated_Source\PSoC4/cyfitter_cfg.c **** *   void
  98:.\Generated_Source\PSoC4/cyfitter_cfg.c **** *
ARM GAS  C:\Users\JOHNNY~1\AppData\Local\Temp\cc7joSo9.s 			page 5


  99:.\Generated_Source\PSoC4/cyfitter_cfg.c **** * Return:
 100:.\Generated_Source\PSoC4/cyfitter_cfg.c **** *   void
 101:.\Generated_Source\PSoC4/cyfitter_cfg.c **** *
 102:.\Generated_Source\PSoC4/cyfitter_cfg.c **** *******************************************************************************/
 103:.\Generated_Source\PSoC4/cyfitter_cfg.c **** CY_CFG_UNUSED
 104:.\Generated_Source\PSoC4/cyfitter_cfg.c **** static void CyClockStartupError(uint8 errorCode);
 105:.\Generated_Source\PSoC4/cyfitter_cfg.c **** CY_CFG_UNUSED
 106:.\Generated_Source\PSoC4/cyfitter_cfg.c **** static void CyClockStartupError(uint8 errorCode)
 107:.\Generated_Source\PSoC4/cyfitter_cfg.c **** {
 108:.\Generated_Source\PSoC4/cyfitter_cfg.c ****     /* To remove the compiler warning if errorCode not used.                */
 109:.\Generated_Source\PSoC4/cyfitter_cfg.c ****     errorCode = errorCode;
 110:.\Generated_Source\PSoC4/cyfitter_cfg.c **** 
 111:.\Generated_Source\PSoC4/cyfitter_cfg.c ****     /* `#START CyClockStartupError` */
 112:.\Generated_Source\PSoC4/cyfitter_cfg.c **** 
 113:.\Generated_Source\PSoC4/cyfitter_cfg.c ****     /* If we have a clock startup error (bad MHz crystal, PLL lock, etc.),  */
 114:.\Generated_Source\PSoC4/cyfitter_cfg.c ****     /* we will end up here to allow the customer to implement something to  */
 115:.\Generated_Source\PSoC4/cyfitter_cfg.c ****     /* deal with the clock condition.                                       */
 116:.\Generated_Source\PSoC4/cyfitter_cfg.c **** 
 117:.\Generated_Source\PSoC4/cyfitter_cfg.c ****     /* `#END` */
 118:.\Generated_Source\PSoC4/cyfitter_cfg.c **** 
 119:.\Generated_Source\PSoC4/cyfitter_cfg.c ****     /* If nothing else, stop here since the clocks have not started         */
 120:.\Generated_Source\PSoC4/cyfitter_cfg.c ****     /* correctly.                                                           */
 121:.\Generated_Source\PSoC4/cyfitter_cfg.c ****     while(1) {}
 122:.\Generated_Source\PSoC4/cyfitter_cfg.c **** }
 123:.\Generated_Source\PSoC4/cyfitter_cfg.c **** #endif
 124:.\Generated_Source\PSoC4/cyfitter_cfg.c **** 
 125:.\Generated_Source\PSoC4/cyfitter_cfg.c **** #define CY_CFG_BASE_ADDR_COUNT 8u
 126:.\Generated_Source\PSoC4/cyfitter_cfg.c **** CYPACKED typedef struct
 127:.\Generated_Source\PSoC4/cyfitter_cfg.c **** {
 128:.\Generated_Source\PSoC4/cyfitter_cfg.c **** 	uint8 offset;
 129:.\Generated_Source\PSoC4/cyfitter_cfg.c **** 	uint8 value;
 130:.\Generated_Source\PSoC4/cyfitter_cfg.c **** } CYPACKED_ATTR cy_cfg_addrvalue_t;
 131:.\Generated_Source\PSoC4/cyfitter_cfg.c **** 
 132:.\Generated_Source\PSoC4/cyfitter_cfg.c **** 
 133:.\Generated_Source\PSoC4/cyfitter_cfg.c **** 
 134:.\Generated_Source\PSoC4/cyfitter_cfg.c **** /*******************************************************************************
 135:.\Generated_Source\PSoC4/cyfitter_cfg.c **** * Function Name: cfg_write_bytes32
 136:.\Generated_Source\PSoC4/cyfitter_cfg.c **** ********************************************************************************
 137:.\Generated_Source\PSoC4/cyfitter_cfg.c **** * Summary:
 138:.\Generated_Source\PSoC4/cyfitter_cfg.c **** *  This function is used for setting up the chip configuration areas that
 139:.\Generated_Source\PSoC4/cyfitter_cfg.c **** *  contain relatively sparse data.
 140:.\Generated_Source\PSoC4/cyfitter_cfg.c **** *
 141:.\Generated_Source\PSoC4/cyfitter_cfg.c **** * Parameters:
 142:.\Generated_Source\PSoC4/cyfitter_cfg.c **** *   void
 143:.\Generated_Source\PSoC4/cyfitter_cfg.c **** *
 144:.\Generated_Source\PSoC4/cyfitter_cfg.c **** * Return:
 145:.\Generated_Source\PSoC4/cyfitter_cfg.c **** *   void
 146:.\Generated_Source\PSoC4/cyfitter_cfg.c **** *
 147:.\Generated_Source\PSoC4/cyfitter_cfg.c **** *******************************************************************************/
 148:.\Generated_Source\PSoC4/cyfitter_cfg.c **** static void cfg_write_bytes32(const uint32 addr_table[], const cy_cfg_addrvalue_t data_table[]);
 149:.\Generated_Source\PSoC4/cyfitter_cfg.c **** static void cfg_write_bytes32(const uint32 addr_table[], const cy_cfg_addrvalue_t data_table[])
 150:.\Generated_Source\PSoC4/cyfitter_cfg.c **** {
 131              		.loc 1 150 0
 132              		.cfi_startproc
 133 0000 80B5     		push	{r7, lr}
 134              		.cfi_def_cfa_offset 8
 135              		.cfi_offset 7, -8
ARM GAS  C:\Users\JOHNNY~1\AppData\Local\Temp\cc7joSo9.s 			page 6


 136              		.cfi_offset 14, -4
 137 0002 86B0     		sub	sp, sp, #24
 138              		.cfi_def_cfa_offset 32
 139 0004 00AF     		add	r7, sp, #0
 140              		.cfi_def_cfa_register 7
 141 0006 7860     		str	r0, [r7, #4]
 142 0008 3960     		str	r1, [r7]
 151:.\Generated_Source\PSoC4/cyfitter_cfg.c **** 	/* For 32-bit little-endian architectures */
 152:.\Generated_Source\PSoC4/cyfitter_cfg.c **** 	uint32 i, j = 0u;
 143              		.loc 1 152 0
 144 000a 0023     		mov	r3, #0
 145 000c 3B61     		str	r3, [r7, #16]
 153:.\Generated_Source\PSoC4/cyfitter_cfg.c **** 	for (i = 0u; i < CY_CFG_BASE_ADDR_COUNT; i++)
 146              		.loc 1 153 0
 147 000e 0023     		mov	r3, #0
 148 0010 7B61     		str	r3, [r7, #20]
 149 0012 2FE0     		b	.L5
 150              	.L8:
 151              	.LBB2:
 154:.\Generated_Source\PSoC4/cyfitter_cfg.c **** 	{
 155:.\Generated_Source\PSoC4/cyfitter_cfg.c **** 		uint32 baseAddr = addr_table[i];
 152              		.loc 1 155 0
 153 0014 7B69     		ldr	r3, [r7, #20]
 154 0016 9B00     		lsl	r3, r3, #2
 155 0018 7A68     		ldr	r2, [r7, #4]
 156 001a D318     		add	r3, r2, r3
 157 001c 1B68     		ldr	r3, [r3]
 158 001e BB60     		str	r3, [r7, #8]
 156:.\Generated_Source\PSoC4/cyfitter_cfg.c **** 		uint8 count = (uint8)baseAddr;
 159              		.loc 1 156 0
 160 0020 0F23     		mov	r3, #15
 161 0022 FB18     		add	r3, r7, r3
 162 0024 BA68     		ldr	r2, [r7, #8]
 163 0026 1A70     		strb	r2, [r3]
 157:.\Generated_Source\PSoC4/cyfitter_cfg.c **** 		baseAddr &= 0xFFFFFF00u;
 164              		.loc 1 157 0
 165 0028 BB68     		ldr	r3, [r7, #8]
 166 002a FF22     		mov	r2, #255
 167 002c 9343     		bic	r3, r2
 168 002e BB60     		str	r3, [r7, #8]
 158:.\Generated_Source\PSoC4/cyfitter_cfg.c **** 		while (count != 0u)
 169              		.loc 1 158 0
 170 0030 18E0     		b	.L6
 171              	.L7:
 159:.\Generated_Source\PSoC4/cyfitter_cfg.c **** 		{
 160:.\Generated_Source\PSoC4/cyfitter_cfg.c **** 			CY_SET_XTND_REG8((void CYFAR *)(baseAddr + data_table[j].offset), data_table[j].value);
 172              		.loc 1 160 0
 173 0032 3B69     		ldr	r3, [r7, #16]
 174 0034 5B00     		lsl	r3, r3, #1
 175 0036 3A68     		ldr	r2, [r7]
 176 0038 D318     		add	r3, r2, r3
 177 003a 1B78     		ldrb	r3, [r3]
 178 003c 1A1C     		mov	r2, r3
 179 003e BB68     		ldr	r3, [r7, #8]
 180 0040 D318     		add	r3, r2, r3
 181 0042 191C     		mov	r1, r3
 182 0044 3B69     		ldr	r3, [r7, #16]
ARM GAS  C:\Users\JOHNNY~1\AppData\Local\Temp\cc7joSo9.s 			page 7


 183 0046 5B00     		lsl	r3, r3, #1
 184 0048 3A68     		ldr	r2, [r7]
 185 004a D318     		add	r3, r2, r3
 186 004c 5B78     		ldrb	r3, [r3, #1]
 187 004e 0B70     		strb	r3, [r1]
 161:.\Generated_Source\PSoC4/cyfitter_cfg.c **** 			j++;
 188              		.loc 1 161 0
 189 0050 3B69     		ldr	r3, [r7, #16]
 190 0052 0133     		add	r3, r3, #1
 191 0054 3B61     		str	r3, [r7, #16]
 162:.\Generated_Source\PSoC4/cyfitter_cfg.c **** 			count--;
 192              		.loc 1 162 0
 193 0056 0F23     		mov	r3, #15
 194 0058 FB18     		add	r3, r7, r3
 195 005a 1A78     		ldrb	r2, [r3]
 196 005c 0F23     		mov	r3, #15
 197 005e FB18     		add	r3, r7, r3
 198 0060 013A     		sub	r2, r2, #1
 199 0062 1A70     		strb	r2, [r3]
 200              	.L6:
 158:.\Generated_Source\PSoC4/cyfitter_cfg.c **** 		{
 201              		.loc 1 158 0
 202 0064 0F23     		mov	r3, #15
 203 0066 FB18     		add	r3, r7, r3
 204 0068 1B78     		ldrb	r3, [r3]
 205 006a 002B     		cmp	r3, #0
 206 006c E1D1     		bne	.L7
 207              	.LBE2:
 153:.\Generated_Source\PSoC4/cyfitter_cfg.c **** 	{
 208              		.loc 1 153 0 discriminator 2
 209 006e 7B69     		ldr	r3, [r7, #20]
 210 0070 0133     		add	r3, r3, #1
 211 0072 7B61     		str	r3, [r7, #20]
 212              	.L5:
 153:.\Generated_Source\PSoC4/cyfitter_cfg.c **** 	{
 213              		.loc 1 153 0 is_stmt 0 discriminator 1
 214 0074 7B69     		ldr	r3, [r7, #20]
 215 0076 072B     		cmp	r3, #7
 216 0078 CCD9     		bls	.L8
 163:.\Generated_Source\PSoC4/cyfitter_cfg.c **** 		}
 164:.\Generated_Source\PSoC4/cyfitter_cfg.c **** 	}
 165:.\Generated_Source\PSoC4/cyfitter_cfg.c **** }
 217              		.loc 1 165 0 is_stmt 1
 218 007a BD46     		mov	sp, r7
 219 007c 06B0     		add	sp, sp, #24
 220              		@ sp needed
 221 007e 80BD     		pop	{r7, pc}
 222              		.cfi_endproc
 223              	.LFE5:
 224              		.size	cfg_write_bytes32, .-cfg_write_bytes32
 225              		.section	.psocinit,"ax",%progbits
 226              		.align	2
 227              		.code	16
 228              		.thumb_func
 229              		.type	ClockSetup, %function
 230              	ClockSetup:
 231              	.LFB6:
ARM GAS  C:\Users\JOHNNY~1\AppData\Local\Temp\cc7joSo9.s 			page 8


 166:.\Generated_Source\PSoC4/cyfitter_cfg.c **** 
 167:.\Generated_Source\PSoC4/cyfitter_cfg.c **** 
 168:.\Generated_Source\PSoC4/cyfitter_cfg.c **** /*******************************************************************************
 169:.\Generated_Source\PSoC4/cyfitter_cfg.c **** * Function Name: ClockSetup
 170:.\Generated_Source\PSoC4/cyfitter_cfg.c **** ********************************************************************************
 171:.\Generated_Source\PSoC4/cyfitter_cfg.c **** *
 172:.\Generated_Source\PSoC4/cyfitter_cfg.c **** * Summary:
 173:.\Generated_Source\PSoC4/cyfitter_cfg.c **** *   Performs the initialization of all of the clocks in the device based on the
 174:.\Generated_Source\PSoC4/cyfitter_cfg.c **** *   settings in the Clock tab of the DWR.  This includes enabling the requested
 175:.\Generated_Source\PSoC4/cyfitter_cfg.c **** *   clocks and setting the necessary dividers to produce the desired frequency. 
 176:.\Generated_Source\PSoC4/cyfitter_cfg.c **** *
 177:.\Generated_Source\PSoC4/cyfitter_cfg.c **** * Parameters:
 178:.\Generated_Source\PSoC4/cyfitter_cfg.c **** *   void
 179:.\Generated_Source\PSoC4/cyfitter_cfg.c **** *
 180:.\Generated_Source\PSoC4/cyfitter_cfg.c **** * Return:
 181:.\Generated_Source\PSoC4/cyfitter_cfg.c **** *   void
 182:.\Generated_Source\PSoC4/cyfitter_cfg.c **** *
 183:.\Generated_Source\PSoC4/cyfitter_cfg.c **** *******************************************************************************/
 184:.\Generated_Source\PSoC4/cyfitter_cfg.c **** static void ClockSetup(void);
 185:.\Generated_Source\PSoC4/cyfitter_cfg.c **** CY_CFG_SECTION
 186:.\Generated_Source\PSoC4/cyfitter_cfg.c **** static void ClockSetup(void)
 187:.\Generated_Source\PSoC4/cyfitter_cfg.c **** {
 232              		.loc 1 187 0
 233              		.cfi_startproc
 234 0000 80B5     		push	{r7, lr}
 235              		.cfi_def_cfa_offset 8
 236              		.cfi_offset 7, -8
 237              		.cfi_offset 14, -4
 238 0002 00AF     		add	r7, sp, #0
 239              		.cfi_def_cfa_register 7
 188:.\Generated_Source\PSoC4/cyfitter_cfg.c **** 
 189:.\Generated_Source\PSoC4/cyfitter_cfg.c **** 	/* Set Flash Cycles based on max possible frequency in case a glitch occurs during ClockSetup(). *
 190:.\Generated_Source\PSoC4/cyfitter_cfg.c **** 	CY_SET_REG32((void CYXDATA *)(CYREG_CPUSS_FLASH_CTL), (0x0012u));
 240              		.loc 1 190 0
 241 0004 254B     		ldr	r3, .L10
 242 0006 1222     		mov	r2, #18
 243 0008 1A60     		str	r2, [r3]
 191:.\Generated_Source\PSoC4/cyfitter_cfg.c **** 	/* Setup and trim IMO based on desired frequency. */
 192:.\Generated_Source\PSoC4/cyfitter_cfg.c **** 	CySysClkWriteImoFreq(48u);
 244              		.loc 1 192 0
 245 000a 3020     		mov	r0, #48
 246 000c FFF7FEFF 		bl	CySysClkWriteImoFreq
 193:.\Generated_Source\PSoC4/cyfitter_cfg.c **** 	/* CYDEV_CLK_ILO_CONFIG Starting address: CYDEV_CLK_ILO_CONFIG */
 194:.\Generated_Source\PSoC4/cyfitter_cfg.c **** 	CY_SET_XTND_REG32((void CYFAR *)(CYREG_CLK_ILO_CONFIG), 0x80000006u);
 247              		.loc 1 194 0
 248 0010 234B     		ldr	r3, .L10+4
 249 0012 244A     		ldr	r2, .L10+8
 250 0014 1A60     		str	r2, [r3]
 195:.\Generated_Source\PSoC4/cyfitter_cfg.c **** 
 196:.\Generated_Source\PSoC4/cyfitter_cfg.c **** 
 197:.\Generated_Source\PSoC4/cyfitter_cfg.c **** 	/* Enable fast start mode for XO */
 198:.\Generated_Source\PSoC4/cyfitter_cfg.c **** 	CY_SET_REG32((void*)CYREG_BLE_BLERD_BB_XO, CY_GET_REG32((void*)CYREG_BLE_BLERD_BB_XO) | (uint32)0x
 251              		.loc 1 198 0
 252 0016 244B     		ldr	r3, .L10+12
 253 0018 234A     		ldr	r2, .L10+12
 254 001a 1268     		ldr	r2, [r2]
 255 001c 0221     		mov	r1, #2
ARM GAS  C:\Users\JOHNNY~1\AppData\Local\Temp\cc7joSo9.s 			page 9


 256 001e 0A43     		orr	r2, r1
 257 0020 1A60     		str	r2, [r3]
 199:.\Generated_Source\PSoC4/cyfitter_cfg.c **** 	CY_SET_XTND_REG32((void CYFAR *)(CYREG_BLE_BLERD_BB_XO_CAPTRIM), 0x00002D6Au);
 258              		.loc 1 199 0
 259 0022 224B     		ldr	r3, .L10+16
 260 0024 224A     		ldr	r2, .L10+20
 261 0026 1A60     		str	r2, [r3]
 200:.\Generated_Source\PSoC4/cyfitter_cfg.c **** 	/* Disable Crystal Stable Interrupt before enabling ECO */
 201:.\Generated_Source\PSoC4/cyfitter_cfg.c **** 	CY_SET_REG32((void*)CYREG_BLE_BLESS_LL_DSM_CTRL, CY_GET_REG32((void*)CYREG_BLE_BLESS_LL_DSM_CTRL) 
 262              		.loc 1 201 0
 263 0028 224B     		ldr	r3, .L10+24
 264 002a 224A     		ldr	r2, .L10+24
 265 002c 1268     		ldr	r2, [r2]
 266 002e 0821     		mov	r1, #8
 267 0030 8A43     		bic	r2, r1
 268 0032 1A60     		str	r2, [r3]
 202:.\Generated_Source\PSoC4/cyfitter_cfg.c **** 	/* Start the ECO and do not check status since it is not needed for HFCLK */
 203:.\Generated_Source\PSoC4/cyfitter_cfg.c **** 	(void)CySysClkEcoStart(2000u);
 269              		.loc 1 203 0
 270 0034 FA23     		mov	r3, #250
 271 0036 DB00     		lsl	r3, r3, #3
 272 0038 181C     		mov	r0, r3
 273 003a FFF7FEFF 		bl	CySysClkEcoStart
 204:.\Generated_Source\PSoC4/cyfitter_cfg.c **** 	CyDelayUs(1500u); /* Wait to stabalize */
 274              		.loc 1 204 0
 275 003e 1E4B     		ldr	r3, .L10+28
 276 0040 181C     		mov	r0, r3
 277 0042 FFF7FEFF 		bl	CyDelayUs
 205:.\Generated_Source\PSoC4/cyfitter_cfg.c **** 
 206:.\Generated_Source\PSoC4/cyfitter_cfg.c **** 	/* Setup phase aligned clocks */
 207:.\Generated_Source\PSoC4/cyfitter_cfg.c **** 	CY_SET_REG32((void *)CYREG_PERI_DIV_16_CTL2, 0x00027000u);
 278              		.loc 1 207 0
 279 0046 1D4B     		ldr	r3, .L10+32
 280 0048 9C22     		mov	r2, #156
 281 004a 9202     		lsl	r2, r2, #10
 282 004c 1A60     		str	r2, [r3]
 208:.\Generated_Source\PSoC4/cyfitter_cfg.c **** 	CY_SET_REG32((void *)CYREG_PERI_DIV_CMD, 0x8000FF42u);
 283              		.loc 1 208 0
 284 004e 1C4B     		ldr	r3, .L10+36
 285 0050 1C4A     		ldr	r2, .L10+40
 286 0052 1A60     		str	r2, [r3]
 209:.\Generated_Source\PSoC4/cyfitter_cfg.c **** 	CY_SET_REG32((void *)CYREG_PERI_DIV_16_CTL1, 0x00002F00u);
 287              		.loc 1 209 0
 288 0054 1C4B     		ldr	r3, .L10+44
 289 0056 BC22     		mov	r2, #188
 290 0058 9201     		lsl	r2, r2, #6
 291 005a 1A60     		str	r2, [r3]
 210:.\Generated_Source\PSoC4/cyfitter_cfg.c **** 	CY_SET_REG32((void *)CYREG_PERI_DIV_CMD, 0x8000FF41u);
 292              		.loc 1 210 0
 293 005c 184B     		ldr	r3, .L10+36
 294 005e 1B4A     		ldr	r2, .L10+48
 295 0060 1A60     		str	r2, [r3]
 211:.\Generated_Source\PSoC4/cyfitter_cfg.c **** 	CY_SET_REG32((void *)CYREG_PERI_DIV_16_CTL0, 0x00001900u);
 296              		.loc 1 211 0
 297 0062 1B4B     		ldr	r3, .L10+52
 298 0064 C822     		mov	r2, #200
 299 0066 5201     		lsl	r2, r2, #5
ARM GAS  C:\Users\JOHNNY~1\AppData\Local\Temp\cc7joSo9.s 			page 10


 300 0068 1A60     		str	r2, [r3]
 212:.\Generated_Source\PSoC4/cyfitter_cfg.c **** 	CY_SET_REG32((void *)CYREG_PERI_DIV_CMD, 0x8000FF40u);
 301              		.loc 1 212 0
 302 006a 154B     		ldr	r3, .L10+36
 303 006c 194A     		ldr	r2, .L10+56
 304 006e 1A60     		str	r2, [r3]
 213:.\Generated_Source\PSoC4/cyfitter_cfg.c **** 
 214:.\Generated_Source\PSoC4/cyfitter_cfg.c **** 	/* CYDEV_CLK_IMO_CONFIG Starting address: CYDEV_CLK_IMO_CONFIG */
 215:.\Generated_Source\PSoC4/cyfitter_cfg.c **** 	CY_SET_XTND_REG32((void CYFAR *)(CYREG_CLK_IMO_CONFIG), 0x82000000u);
 305              		.loc 1 215 0
 306 0070 194B     		ldr	r3, .L10+60
 307 0072 8222     		mov	r2, #130
 308 0074 1206     		lsl	r2, r2, #24
 309 0076 1A60     		str	r2, [r3]
 216:.\Generated_Source\PSoC4/cyfitter_cfg.c **** 
 217:.\Generated_Source\PSoC4/cyfitter_cfg.c **** 	/* CYDEV_CLK_SELECT Starting address: CYDEV_CLK_SELECT */
 218:.\Generated_Source\PSoC4/cyfitter_cfg.c **** 	CY_SET_XTND_REG32((void CYFAR *)(CYREG_CLK_SELECT), 0x00040000u);
 310              		.loc 1 218 0
 311 0078 184B     		ldr	r3, .L10+64
 312 007a 8022     		mov	r2, #128
 313 007c D202     		lsl	r2, r2, #11
 314 007e 1A60     		str	r2, [r3]
 219:.\Generated_Source\PSoC4/cyfitter_cfg.c **** 
 220:.\Generated_Source\PSoC4/cyfitter_cfg.c **** 	/* CYDEV_PERI_PCLK_CTL11 Starting address: CYDEV_PERI_PCLK_CTL11 */
 221:.\Generated_Source\PSoC4/cyfitter_cfg.c **** 	CY_SET_XTND_REG32((void CYFAR *)(CYREG_PERI_PCLK_CTL11), 0x00000042u);
 315              		.loc 1 221 0
 316 0080 174B     		ldr	r3, .L10+68
 317 0082 4222     		mov	r2, #66
 318 0084 1A60     		str	r2, [r3]
 222:.\Generated_Source\PSoC4/cyfitter_cfg.c **** 
 223:.\Generated_Source\PSoC4/cyfitter_cfg.c **** 	/* CYDEV_PERI_PCLK_CTL6 Starting address: CYDEV_PERI_PCLK_CTL6 */
 224:.\Generated_Source\PSoC4/cyfitter_cfg.c **** 	CY_SET_XTND_REG32((void CYFAR *)(CYREG_PERI_PCLK_CTL6), 0x00000041u);
 319              		.loc 1 224 0
 320 0086 174B     		ldr	r3, .L10+72
 321 0088 4122     		mov	r2, #65
 322 008a 1A60     		str	r2, [r3]
 225:.\Generated_Source\PSoC4/cyfitter_cfg.c **** 
 226:.\Generated_Source\PSoC4/cyfitter_cfg.c **** 	/* CYDEV_PERI_PCLK_CTL1 Starting address: CYDEV_PERI_PCLK_CTL1 */
 227:.\Generated_Source\PSoC4/cyfitter_cfg.c **** 	CY_SET_XTND_REG32((void CYFAR *)(CYREG_PERI_PCLK_CTL1), 0x00000040u);
 323              		.loc 1 227 0
 324 008c 164B     		ldr	r3, .L10+76
 325 008e 4022     		mov	r2, #64
 326 0090 1A60     		str	r2, [r3]
 228:.\Generated_Source\PSoC4/cyfitter_cfg.c **** 
 229:.\Generated_Source\PSoC4/cyfitter_cfg.c **** 	CY_SET_XTND_REG32((void CYFAR *)(CYREG_WDT_CONFIG), 0x00000000u);
 327              		.loc 1 229 0
 328 0092 164B     		ldr	r3, .L10+80
 329 0094 0022     		mov	r2, #0
 330 0096 1A60     		str	r2, [r3]
 230:.\Generated_Source\PSoC4/cyfitter_cfg.c **** }
 331              		.loc 1 230 0
 332 0098 BD46     		mov	sp, r7
 333              		@ sp needed
 334 009a 80BD     		pop	{r7, pc}
 335              	.L11:
 336              		.align	2
 337              	.L10:
ARM GAS  C:\Users\JOHNNY~1\AppData\Local\Temp\cc7joSo9.s 			page 11


 338 009c 30001040 		.word	1074790448
 339 00a0 04010B40 		.word	1074462980
 340 00a4 06000080 		.word	-2147483642
 341 00a8 78002E40 		.word	1076756600
 342 00ac 7C002E40 		.word	1076756604
 343 00b0 6A2D0000 		.word	11626
 344 00b4 6CF02E40 		.word	1076818028
 345 00b8 DC050000 		.word	1500
 346 00bc 08030140 		.word	1073808136
 347 00c0 00000140 		.word	1073807360
 348 00c4 42FF0080 		.word	-2147418302
 349 00c8 04030140 		.word	1073808132
 350 00cc 41FF0080 		.word	-2147418303
 351 00d0 00030140 		.word	1073808128
 352 00d4 40FF0080 		.word	-2147418304
 353 00d8 08010B40 		.word	1074462984
 354 00dc 00010B40 		.word	1074462976
 355 00e0 2C010140 		.word	1073807660
 356 00e4 18010140 		.word	1073807640
 357 00e8 04010140 		.word	1073807620
 358 00ec 0C020B40 		.word	1074463244
 359              		.cfi_endproc
 360              	.LFE6:
 361              		.size	ClockSetup, .-ClockSetup
 362              		.section	.text.AnalogSetDefault,"ax",%progbits
 363              		.align	2
 364              		.code	16
 365              		.thumb_func
 366              		.type	AnalogSetDefault, %function
 367              	AnalogSetDefault:
 368              	.LFB7:
 231:.\Generated_Source\PSoC4/cyfitter_cfg.c **** 
 232:.\Generated_Source\PSoC4/cyfitter_cfg.c **** 
 233:.\Generated_Source\PSoC4/cyfitter_cfg.c **** /* Analog API Functions */
 234:.\Generated_Source\PSoC4/cyfitter_cfg.c **** 
 235:.\Generated_Source\PSoC4/cyfitter_cfg.c **** 
 236:.\Generated_Source\PSoC4/cyfitter_cfg.c **** /*******************************************************************************
 237:.\Generated_Source\PSoC4/cyfitter_cfg.c **** * Function Name: AnalogSetDefault
 238:.\Generated_Source\PSoC4/cyfitter_cfg.c **** ********************************************************************************
 239:.\Generated_Source\PSoC4/cyfitter_cfg.c **** *
 240:.\Generated_Source\PSoC4/cyfitter_cfg.c **** * Summary:
 241:.\Generated_Source\PSoC4/cyfitter_cfg.c **** *  Sets up the analog portions of the chip to default values based on chip
 242:.\Generated_Source\PSoC4/cyfitter_cfg.c **** *  configuration options from the project.
 243:.\Generated_Source\PSoC4/cyfitter_cfg.c **** *
 244:.\Generated_Source\PSoC4/cyfitter_cfg.c **** * Parameters:
 245:.\Generated_Source\PSoC4/cyfitter_cfg.c **** *  void
 246:.\Generated_Source\PSoC4/cyfitter_cfg.c **** *
 247:.\Generated_Source\PSoC4/cyfitter_cfg.c **** * Return:
 248:.\Generated_Source\PSoC4/cyfitter_cfg.c **** *  void
 249:.\Generated_Source\PSoC4/cyfitter_cfg.c **** *
 250:.\Generated_Source\PSoC4/cyfitter_cfg.c **** *******************************************************************************/
 251:.\Generated_Source\PSoC4/cyfitter_cfg.c **** static void AnalogSetDefault(void);
 252:.\Generated_Source\PSoC4/cyfitter_cfg.c **** static void AnalogSetDefault(void)
 253:.\Generated_Source\PSoC4/cyfitter_cfg.c **** {
 369              		.loc 1 253 0
 370              		.cfi_startproc
 371 0000 80B5     		push	{r7, lr}
ARM GAS  C:\Users\JOHNNY~1\AppData\Local\Temp\cc7joSo9.s 			page 12


 372              		.cfi_def_cfa_offset 8
 373              		.cfi_offset 7, -8
 374              		.cfi_offset 14, -4
 375 0002 00AF     		add	r7, sp, #0
 376              		.cfi_def_cfa_register 7
 254:.\Generated_Source\PSoC4/cyfitter_cfg.c **** 	CY_SET_XTND_REG32((void CYFAR *)CYREG_CTBM0_DFT_CTRL, 0x00000003u);
 377              		.loc 1 254 0
 378 0004 0B4B     		ldr	r3, .L13
 379 0006 0322     		mov	r2, #3
 380 0008 1A60     		str	r2, [r3]
 255:.\Generated_Source\PSoC4/cyfitter_cfg.c **** 	CY_SET_XTND_REG32((void CYFAR *)CYREG_CTBM1_DFT_CTRL, 0x00000003u);
 381              		.loc 1 255 0
 382 000a 0B4B     		ldr	r3, .L13+4
 383 000c 0322     		mov	r2, #3
 384 000e 1A60     		str	r2, [r3]
 256:.\Generated_Source\PSoC4/cyfitter_cfg.c **** 	CY_SET_XTND_REG32((void CYFAR *)CYREG_SAR_CTRL, 0x08000000u);
 385              		.loc 1 256 0
 386 0010 0A4B     		ldr	r3, .L13+8
 387 0012 8022     		mov	r2, #128
 388 0014 1205     		lsl	r2, r2, #20
 389 0016 1A60     		str	r2, [r3]
 257:.\Generated_Source\PSoC4/cyfitter_cfg.c **** 	CY_SET_XTND_REG32((void CYFAR *)CYREG_SAR_MUX_SWITCH0, 0x00030001u);
 390              		.loc 1 257 0
 391 0018 094B     		ldr	r3, .L13+12
 392 001a 0A4A     		ldr	r2, .L13+16
 393 001c 1A60     		str	r2, [r3]
 258:.\Generated_Source\PSoC4/cyfitter_cfg.c **** 	CY_SET_XTND_REG32((void CYFAR *)CYREG_SAR_MUX_SWITCH_HW_CTRL, 0x00030001u);
 394              		.loc 1 258 0
 395 001e 0A4B     		ldr	r3, .L13+20
 396 0020 084A     		ldr	r2, .L13+16
 397 0022 1A60     		str	r2, [r3]
 259:.\Generated_Source\PSoC4/cyfitter_cfg.c **** 	CY_SET_XTND_REG32((void CYFAR *)CYREG_PASS_DSAB_DSAB_CTRL, 0x00000000u);
 398              		.loc 1 259 0
 399 0024 094B     		ldr	r3, .L13+24
 400 0026 0022     		mov	r2, #0
 401 0028 1A60     		str	r2, [r3]
 260:.\Generated_Source\PSoC4/cyfitter_cfg.c **** 	SetAnalogRoutingPumps(1);
 402              		.loc 1 260 0
 403 002a 0120     		mov	r0, #1
 404 002c FFF7FEFF 		bl	SetAnalogRoutingPumps
 261:.\Generated_Source\PSoC4/cyfitter_cfg.c **** }
 405              		.loc 1 261 0
 406 0030 BD46     		mov	sp, r7
 407              		@ sp needed
 408 0032 80BD     		pop	{r7, pc}
 409              	.L14:
 410              		.align	2
 411              	.L13:
 412 0034 30003040 		.word	1076887600
 413 0038 30003140 		.word	1076953136
 414 003c 00003A40 		.word	1077542912
 415 0040 00033A40 		.word	1077543680
 416 0044 01000300 		.word	196609
 417 0048 40033A40 		.word	1077543744
 418 004c 000E3F40 		.word	1077874176
 419              		.cfi_endproc
 420              	.LFE7:
ARM GAS  C:\Users\JOHNNY~1\AppData\Local\Temp\cc7joSo9.s 			page 13


 421              		.size	AnalogSetDefault, .-AnalogSetDefault
 422              		.section	.text.SetAnalogRoutingPumps,"ax",%progbits
 423              		.align	2
 424              		.global	SetAnalogRoutingPumps
 425              		.code	16
 426              		.thumb_func
 427              		.type	SetAnalogRoutingPumps, %function
 428              	SetAnalogRoutingPumps:
 429              	.LFB8:
 262:.\Generated_Source\PSoC4/cyfitter_cfg.c **** 
 263:.\Generated_Source\PSoC4/cyfitter_cfg.c **** 
 264:.\Generated_Source\PSoC4/cyfitter_cfg.c **** /*******************************************************************************
 265:.\Generated_Source\PSoC4/cyfitter_cfg.c **** * Function Name: SetAnalogRoutingPumps
 266:.\Generated_Source\PSoC4/cyfitter_cfg.c **** ********************************************************************************
 267:.\Generated_Source\PSoC4/cyfitter_cfg.c **** *
 268:.\Generated_Source\PSoC4/cyfitter_cfg.c **** * Summary:
 269:.\Generated_Source\PSoC4/cyfitter_cfg.c **** * Enables or disables the analog pumps feeding analog routing switches.
 270:.\Generated_Source\PSoC4/cyfitter_cfg.c **** * Intended to be called at startup, based on the Vdda system configuration;
 271:.\Generated_Source\PSoC4/cyfitter_cfg.c **** * may be called during operation when the user informs us that the Vdda voltage crossed the pump th
 272:.\Generated_Source\PSoC4/cyfitter_cfg.c **** *
 273:.\Generated_Source\PSoC4/cyfitter_cfg.c **** * Parameters:
 274:.\Generated_Source\PSoC4/cyfitter_cfg.c **** *  enabled - 1 to enable the pumps, 0 to disable the pumps
 275:.\Generated_Source\PSoC4/cyfitter_cfg.c **** *
 276:.\Generated_Source\PSoC4/cyfitter_cfg.c **** * Return:
 277:.\Generated_Source\PSoC4/cyfitter_cfg.c **** *  void
 278:.\Generated_Source\PSoC4/cyfitter_cfg.c **** *
 279:.\Generated_Source\PSoC4/cyfitter_cfg.c **** *******************************************************************************/
 280:.\Generated_Source\PSoC4/cyfitter_cfg.c **** void SetAnalogRoutingPumps(uint8 enabled)
 281:.\Generated_Source\PSoC4/cyfitter_cfg.c **** {
 430              		.loc 1 281 0
 431              		.cfi_startproc
 432 0000 80B5     		push	{r7, lr}
 433              		.cfi_def_cfa_offset 8
 434              		.cfi_offset 7, -8
 435              		.cfi_offset 14, -4
 436 0002 84B0     		sub	sp, sp, #16
 437              		.cfi_def_cfa_offset 24
 438 0004 00AF     		add	r7, sp, #0
 439              		.cfi_def_cfa_register 7
 440 0006 021C     		mov	r2, r0
 441 0008 FB1D     		add	r3, r7, #7
 442 000a 1A70     		strb	r2, [r3]
 282:.\Generated_Source\PSoC4/cyfitter_cfg.c **** 	uint32 regValue = CY_GET_XTND_REG32((void *)(CYREG_SAR_PUMP_CTRL));
 443              		.loc 1 282 0
 444 000c 0B4B     		ldr	r3, .L18
 445 000e 1B68     		ldr	r3, [r3]
 446 0010 FB60     		str	r3, [r7, #12]
 283:.\Generated_Source\PSoC4/cyfitter_cfg.c **** 	if (enabled != 0u)
 447              		.loc 1 283 0
 448 0012 FB1D     		add	r3, r7, #7
 449 0014 1B78     		ldrb	r3, [r3]
 450 0016 002B     		cmp	r3, #0
 451 0018 05D0     		beq	.L16
 284:.\Generated_Source\PSoC4/cyfitter_cfg.c **** 	{
 285:.\Generated_Source\PSoC4/cyfitter_cfg.c **** 		regValue |= 0x80000000u;
 452              		.loc 1 285 0
 453 001a FB68     		ldr	r3, [r7, #12]
ARM GAS  C:\Users\JOHNNY~1\AppData\Local\Temp\cc7joSo9.s 			page 14


 454 001c 8022     		mov	r2, #128
 455 001e 1206     		lsl	r2, r2, #24
 456 0020 1343     		orr	r3, r2
 457 0022 FB60     		str	r3, [r7, #12]
 458 0024 03E0     		b	.L17
 459              	.L16:
 286:.\Generated_Source\PSoC4/cyfitter_cfg.c **** 	}
 287:.\Generated_Source\PSoC4/cyfitter_cfg.c **** 	else
 288:.\Generated_Source\PSoC4/cyfitter_cfg.c **** 	{
 289:.\Generated_Source\PSoC4/cyfitter_cfg.c **** 		regValue &= ~0x80000000u;
 460              		.loc 1 289 0
 461 0026 FB68     		ldr	r3, [r7, #12]
 462 0028 5B00     		lsl	r3, r3, #1
 463 002a 5B08     		lsr	r3, r3, #1
 464 002c FB60     		str	r3, [r7, #12]
 465              	.L17:
 290:.\Generated_Source\PSoC4/cyfitter_cfg.c **** 	}
 291:.\Generated_Source\PSoC4/cyfitter_cfg.c **** 	CY_SET_XTND_REG32((void *)(CYREG_SAR_PUMP_CTRL), regValue);
 466              		.loc 1 291 0
 467 002e 034B     		ldr	r3, .L18
 468 0030 FA68     		ldr	r2, [r7, #12]
 469 0032 1A60     		str	r2, [r3]
 292:.\Generated_Source\PSoC4/cyfitter_cfg.c **** }
 470              		.loc 1 292 0
 471 0034 BD46     		mov	sp, r7
 472 0036 04B0     		add	sp, sp, #16
 473              		@ sp needed
 474 0038 80BD     		pop	{r7, pc}
 475              	.L19:
 476 003a C046     		.align	2
 477              	.L18:
 478 003c 80033A40 		.word	1077543808
 479              		.cfi_endproc
 480              	.LFE8:
 481              		.size	SetAnalogRoutingPumps, .-SetAnalogRoutingPumps
 482              		.section	.psocinit
 483              		.align	2
 484              		.global	cyfitter_cfg
 485              		.code	16
 486              		.thumb_func
 487              		.type	cyfitter_cfg, %function
 488              	cyfitter_cfg:
 489              	.LFB9:
 293:.\Generated_Source\PSoC4/cyfitter_cfg.c **** 
 294:.\Generated_Source\PSoC4/cyfitter_cfg.c **** #define CY_AMUX_UNUSED CYREG_CM0_ROM_DWT
 295:.\Generated_Source\PSoC4/cyfitter_cfg.c **** 
 296:.\Generated_Source\PSoC4/cyfitter_cfg.c **** 
 297:.\Generated_Source\PSoC4/cyfitter_cfg.c **** /*******************************************************************************
 298:.\Generated_Source\PSoC4/cyfitter_cfg.c **** * Function Name: cyfitter_cfg
 299:.\Generated_Source\PSoC4/cyfitter_cfg.c **** ********************************************************************************
 300:.\Generated_Source\PSoC4/cyfitter_cfg.c **** * Summary:
 301:.\Generated_Source\PSoC4/cyfitter_cfg.c **** *  This function is called by the start-up code for the selected device. It
 302:.\Generated_Source\PSoC4/cyfitter_cfg.c **** *  performs all of the necessary device configuration based on the design
 303:.\Generated_Source\PSoC4/cyfitter_cfg.c **** *  settings.  This includes settings from the Design Wide Resources (DWR) such
 304:.\Generated_Source\PSoC4/cyfitter_cfg.c **** *  as Clocks and Pins as well as any component configuration that is necessary.
 305:.\Generated_Source\PSoC4/cyfitter_cfg.c **** *
 306:.\Generated_Source\PSoC4/cyfitter_cfg.c **** * Parameters:  
ARM GAS  C:\Users\JOHNNY~1\AppData\Local\Temp\cc7joSo9.s 			page 15


 307:.\Generated_Source\PSoC4/cyfitter_cfg.c **** *   void
 308:.\Generated_Source\PSoC4/cyfitter_cfg.c **** *
 309:.\Generated_Source\PSoC4/cyfitter_cfg.c **** * Return:
 310:.\Generated_Source\PSoC4/cyfitter_cfg.c **** *   void
 311:.\Generated_Source\PSoC4/cyfitter_cfg.c **** *
 312:.\Generated_Source\PSoC4/cyfitter_cfg.c **** *******************************************************************************/
 313:.\Generated_Source\PSoC4/cyfitter_cfg.c **** CY_CFG_SECTION
 314:.\Generated_Source\PSoC4/cyfitter_cfg.c **** void cyfitter_cfg(void)
 315:.\Generated_Source\PSoC4/cyfitter_cfg.c **** {
 490              		.loc 1 315 0
 491              		.cfi_startproc
 492 00f0 80B5     		push	{r7, lr}
 493              		.cfi_def_cfa_offset 8
 494              		.cfi_offset 7, -8
 495              		.cfi_offset 14, -4
 496 00f2 82B0     		sub	sp, sp, #8
 497              		.cfi_def_cfa_offset 16
 498 00f4 00AF     		add	r7, sp, #0
 499              		.cfi_def_cfa_register 7
 316:.\Generated_Source\PSoC4/cyfitter_cfg.c **** 	/* Disable interrupts by default. Let user enable if/when they want. */
 317:.\Generated_Source\PSoC4/cyfitter_cfg.c **** 	CyGlobalIntDisable;
 500              		.loc 1 317 0
 501              	@ 317 ".\Generated_Source\PSoC4\cyfitter_cfg.c" 1
 502 00f6 72B6     		CPSID   i
 503              	@ 0 "" 2
 318:.\Generated_Source\PSoC4/cyfitter_cfg.c **** 
 319:.\Generated_Source\PSoC4/cyfitter_cfg.c **** 	CY_SET_XTND_REG32((void CYFAR *)(CYREG_BLE_BLESS_LL_DSM_CTRL), 0x00000000u);
 504              		.loc 1 319 0
 505              		.code	16
 506 00f8 4E4B     		ldr	r3, .L23
 507 00fa 0022     		mov	r2, #0
 508 00fc 1A60     		str	r2, [r3]
 320:.\Generated_Source\PSoC4/cyfitter_cfg.c **** 
 321:.\Generated_Source\PSoC4/cyfitter_cfg.c **** 	/* Enable the clock in the interrupt controller for the routed interrupts */
 322:.\Generated_Source\PSoC4/cyfitter_cfg.c **** 	CY_SET_REG8((void *)CYREG_UDB_UDBIF_INT_CLK_CTL, 0x01u);
 509              		.loc 1 322 0
 510 00fe 4E4B     		ldr	r3, .L23+4
 511 0100 0122     		mov	r2, #1
 512 0102 1A70     		strb	r2, [r3]
 513              	.LBB3:
 323:.\Generated_Source\PSoC4/cyfitter_cfg.c **** 	{
 324:.\Generated_Source\PSoC4/cyfitter_cfg.c **** 		static const uint32 CYCODE cy_cfg_addr_table[] = {
 325:.\Generated_Source\PSoC4/cyfitter_cfg.c **** 			0x400F0002u, /* Base address: 0x400F0000 Count: 2 */
 326:.\Generated_Source\PSoC4/cyfitter_cfg.c **** 			0x400F303Au, /* Base address: 0x400F3000 Count: 58 */
 327:.\Generated_Source\PSoC4/cyfitter_cfg.c **** 			0x400F3126u, /* Base address: 0x400F3100 Count: 38 */
 328:.\Generated_Source\PSoC4/cyfitter_cfg.c **** 			0x400F322Du, /* Base address: 0x400F3200 Count: 45 */
 329:.\Generated_Source\PSoC4/cyfitter_cfg.c **** 			0x400F3332u, /* Base address: 0x400F3300 Count: 50 */
 330:.\Generated_Source\PSoC4/cyfitter_cfg.c **** 			0x400F4004u, /* Base address: 0x400F4000 Count: 4 */
 331:.\Generated_Source\PSoC4/cyfitter_cfg.c **** 			0x400F4104u, /* Base address: 0x400F4100 Count: 4 */
 332:.\Generated_Source\PSoC4/cyfitter_cfg.c **** 			0x400F6002u, /* Base address: 0x400F6000 Count: 2 */
 333:.\Generated_Source\PSoC4/cyfitter_cfg.c **** 		};
 334:.\Generated_Source\PSoC4/cyfitter_cfg.c **** 
 335:.\Generated_Source\PSoC4/cyfitter_cfg.c **** 		static const cy_cfg_addrvalue_t CYCODE cy_cfg_data_table[] = {
 336:.\Generated_Source\PSoC4/cyfitter_cfg.c **** 			{0x81u, 0x38u},
 337:.\Generated_Source\PSoC4/cyfitter_cfg.c **** 			{0x82u, 0x72u},
 338:.\Generated_Source\PSoC4/cyfitter_cfg.c **** 			{0x80u, 0x80u},
 339:.\Generated_Source\PSoC4/cyfitter_cfg.c **** 			{0x83u, 0x01u},
ARM GAS  C:\Users\JOHNNY~1\AppData\Local\Temp\cc7joSo9.s 			page 16


 340:.\Generated_Source\PSoC4/cyfitter_cfg.c **** 			{0x84u, 0xE7u},
 341:.\Generated_Source\PSoC4/cyfitter_cfg.c **** 			{0x88u, 0xE7u},
 342:.\Generated_Source\PSoC4/cyfitter_cfg.c **** 			{0x8Fu, 0x08u},
 343:.\Generated_Source\PSoC4/cyfitter_cfg.c **** 			{0x93u, 0x08u},
 344:.\Generated_Source\PSoC4/cyfitter_cfg.c **** 			{0x95u, 0x01u},
 345:.\Generated_Source\PSoC4/cyfitter_cfg.c **** 			{0x98u, 0x44u},
 346:.\Generated_Source\PSoC4/cyfitter_cfg.c **** 			{0x9Au, 0x31u},
 347:.\Generated_Source\PSoC4/cyfitter_cfg.c **** 			{0x9Bu, 0x01u},
 348:.\Generated_Source\PSoC4/cyfitter_cfg.c **** 			{0x9Cu, 0x01u},
 349:.\Generated_Source\PSoC4/cyfitter_cfg.c **** 			{0x9Eu, 0x0Eu},
 350:.\Generated_Source\PSoC4/cyfitter_cfg.c **** 			{0x9Fu, 0x02u},
 351:.\Generated_Source\PSoC4/cyfitter_cfg.c **** 			{0xA3u, 0x04u},
 352:.\Generated_Source\PSoC4/cyfitter_cfg.c **** 			{0xA7u, 0x02u},
 353:.\Generated_Source\PSoC4/cyfitter_cfg.c **** 			{0xA8u, 0x22u},
 354:.\Generated_Source\PSoC4/cyfitter_cfg.c **** 			{0xAAu, 0x51u},
 355:.\Generated_Source\PSoC4/cyfitter_cfg.c **** 			{0xADu, 0x01u},
 356:.\Generated_Source\PSoC4/cyfitter_cfg.c **** 			{0xB0u, 0x80u},
 357:.\Generated_Source\PSoC4/cyfitter_cfg.c **** 			{0xB1u, 0x01u},
 358:.\Generated_Source\PSoC4/cyfitter_cfg.c **** 			{0xB2u, 0x18u},
 359:.\Generated_Source\PSoC4/cyfitter_cfg.c **** 			{0xB3u, 0x02u},
 360:.\Generated_Source\PSoC4/cyfitter_cfg.c **** 			{0xB4u, 0x60u},
 361:.\Generated_Source\PSoC4/cyfitter_cfg.c **** 			{0xB5u, 0x04u},
 362:.\Generated_Source\PSoC4/cyfitter_cfg.c **** 			{0xB6u, 0x07u},
 363:.\Generated_Source\PSoC4/cyfitter_cfg.c **** 			{0xB7u, 0x08u},
 364:.\Generated_Source\PSoC4/cyfitter_cfg.c **** 			{0xB9u, 0x02u},
 365:.\Generated_Source\PSoC4/cyfitter_cfg.c **** 			{0xBEu, 0x04u},
 366:.\Generated_Source\PSoC4/cyfitter_cfg.c **** 			{0xBFu, 0x44u},
 367:.\Generated_Source\PSoC4/cyfitter_cfg.c **** 			{0xC0u, 0x21u},
 368:.\Generated_Source\PSoC4/cyfitter_cfg.c **** 			{0xC1u, 0x06u},
 369:.\Generated_Source\PSoC4/cyfitter_cfg.c **** 			{0xC2u, 0x05u},
 370:.\Generated_Source\PSoC4/cyfitter_cfg.c **** 			{0xC4u, 0x03u},
 371:.\Generated_Source\PSoC4/cyfitter_cfg.c **** 			{0xC6u, 0xECu},
 372:.\Generated_Source\PSoC4/cyfitter_cfg.c **** 			{0xC8u, 0x0Cu},
 373:.\Generated_Source\PSoC4/cyfitter_cfg.c **** 			{0xC9u, 0xFFu},
 374:.\Generated_Source\PSoC4/cyfitter_cfg.c **** 			{0xCAu, 0xFFu},
 375:.\Generated_Source\PSoC4/cyfitter_cfg.c **** 			{0xCBu, 0xFFu},
 376:.\Generated_Source\PSoC4/cyfitter_cfg.c **** 			{0xCCu, 0x62u},
 377:.\Generated_Source\PSoC4/cyfitter_cfg.c **** 			{0xCDu, 0xA0u},
 378:.\Generated_Source\PSoC4/cyfitter_cfg.c **** 			{0xCEu, 0xF0u},
 379:.\Generated_Source\PSoC4/cyfitter_cfg.c **** 			{0xCFu, 0x41u},
 380:.\Generated_Source\PSoC4/cyfitter_cfg.c **** 			{0xD0u, 0x0Cu},
 381:.\Generated_Source\PSoC4/cyfitter_cfg.c **** 			{0xD4u, 0x18u},
 382:.\Generated_Source\PSoC4/cyfitter_cfg.c **** 			{0xD6u, 0x04u},
 383:.\Generated_Source\PSoC4/cyfitter_cfg.c **** 			{0xD8u, 0x04u},
 384:.\Generated_Source\PSoC4/cyfitter_cfg.c **** 			{0xD9u, 0x04u},
 385:.\Generated_Source\PSoC4/cyfitter_cfg.c **** 			{0xDAu, 0x04u},
 386:.\Generated_Source\PSoC4/cyfitter_cfg.c **** 			{0xDBu, 0x04u},
 387:.\Generated_Source\PSoC4/cyfitter_cfg.c **** 			{0xDFu, 0x01u},
 388:.\Generated_Source\PSoC4/cyfitter_cfg.c **** 			{0xE6u, 0x40u},
 389:.\Generated_Source\PSoC4/cyfitter_cfg.c **** 			{0xE7u, 0x02u},
 390:.\Generated_Source\PSoC4/cyfitter_cfg.c **** 			{0xE9u, 0x10u},
 391:.\Generated_Source\PSoC4/cyfitter_cfg.c **** 			{0xEAu, 0x30u},
 392:.\Generated_Source\PSoC4/cyfitter_cfg.c **** 			{0xEBu, 0x10u},
 393:.\Generated_Source\PSoC4/cyfitter_cfg.c **** 			{0xEDu, 0x10u},
 394:.\Generated_Source\PSoC4/cyfitter_cfg.c **** 			{0xEEu, 0x10u},
 395:.\Generated_Source\PSoC4/cyfitter_cfg.c **** 			{0xEFu, 0x12u},
 396:.\Generated_Source\PSoC4/cyfitter_cfg.c **** 			{0x04u, 0x2Au},
ARM GAS  C:\Users\JOHNNY~1\AppData\Local\Temp\cc7joSo9.s 			page 17


 397:.\Generated_Source\PSoC4/cyfitter_cfg.c **** 			{0x0Eu, 0x0Au},
 398:.\Generated_Source\PSoC4/cyfitter_cfg.c **** 			{0x10u, 0x04u},
 399:.\Generated_Source\PSoC4/cyfitter_cfg.c **** 			{0x13u, 0x20u},
 400:.\Generated_Source\PSoC4/cyfitter_cfg.c **** 			{0x14u, 0x08u},
 401:.\Generated_Source\PSoC4/cyfitter_cfg.c **** 			{0x1Du, 0x49u},
 402:.\Generated_Source\PSoC4/cyfitter_cfg.c **** 			{0x1Eu, 0x0Au},
 403:.\Generated_Source\PSoC4/cyfitter_cfg.c **** 			{0x25u, 0x10u},
 404:.\Generated_Source\PSoC4/cyfitter_cfg.c **** 			{0x27u, 0x61u},
 405:.\Generated_Source\PSoC4/cyfitter_cfg.c **** 			{0x2Cu, 0x40u},
 406:.\Generated_Source\PSoC4/cyfitter_cfg.c **** 			{0x2Fu, 0x22u},
 407:.\Generated_Source\PSoC4/cyfitter_cfg.c **** 			{0x30u, 0x01u},
 408:.\Generated_Source\PSoC4/cyfitter_cfg.c **** 			{0x31u, 0x01u},
 409:.\Generated_Source\PSoC4/cyfitter_cfg.c **** 			{0x36u, 0x2Au},
 410:.\Generated_Source\PSoC4/cyfitter_cfg.c **** 			{0x37u, 0x40u},
 411:.\Generated_Source\PSoC4/cyfitter_cfg.c **** 			{0x3Eu, 0x01u},
 412:.\Generated_Source\PSoC4/cyfitter_cfg.c **** 			{0x3Fu, 0x80u},
 413:.\Generated_Source\PSoC4/cyfitter_cfg.c **** 			{0x44u, 0x01u},
 414:.\Generated_Source\PSoC4/cyfitter_cfg.c **** 			{0x45u, 0x28u},
 415:.\Generated_Source\PSoC4/cyfitter_cfg.c **** 			{0x46u, 0x80u},
 416:.\Generated_Source\PSoC4/cyfitter_cfg.c **** 			{0x47u, 0x01u},
 417:.\Generated_Source\PSoC4/cyfitter_cfg.c **** 			{0x4Eu, 0x0Au},
 418:.\Generated_Source\PSoC4/cyfitter_cfg.c **** 			{0x57u, 0x60u},
 419:.\Generated_Source\PSoC4/cyfitter_cfg.c **** 			{0x5Cu, 0x01u},
 420:.\Generated_Source\PSoC4/cyfitter_cfg.c **** 			{0x64u, 0x04u},
 421:.\Generated_Source\PSoC4/cyfitter_cfg.c **** 			{0x66u, 0x80u},
 422:.\Generated_Source\PSoC4/cyfitter_cfg.c **** 			{0x67u, 0x40u},
 423:.\Generated_Source\PSoC4/cyfitter_cfg.c **** 			{0x87u, 0x40u},
 424:.\Generated_Source\PSoC4/cyfitter_cfg.c **** 			{0xC0u, 0x70u},
 425:.\Generated_Source\PSoC4/cyfitter_cfg.c **** 			{0xC2u, 0xC0u},
 426:.\Generated_Source\PSoC4/cyfitter_cfg.c **** 			{0xC4u, 0x40u},
 427:.\Generated_Source\PSoC4/cyfitter_cfg.c **** 			{0xCAu, 0xD0u},
 428:.\Generated_Source\PSoC4/cyfitter_cfg.c **** 			{0xCCu, 0xF0u},
 429:.\Generated_Source\PSoC4/cyfitter_cfg.c **** 			{0xCEu, 0x90u},
 430:.\Generated_Source\PSoC4/cyfitter_cfg.c **** 			{0xD0u, 0x70u},
 431:.\Generated_Source\PSoC4/cyfitter_cfg.c **** 			{0xD2u, 0x30u},
 432:.\Generated_Source\PSoC4/cyfitter_cfg.c **** 			{0xD6u, 0x80u},
 433:.\Generated_Source\PSoC4/cyfitter_cfg.c **** 			{0xD8u, 0xB0u},
 434:.\Generated_Source\PSoC4/cyfitter_cfg.c **** 			{0x01u, 0x10u},
 435:.\Generated_Source\PSoC4/cyfitter_cfg.c **** 			{0x02u, 0x23u},
 436:.\Generated_Source\PSoC4/cyfitter_cfg.c **** 			{0x05u, 0xFFu},
 437:.\Generated_Source\PSoC4/cyfitter_cfg.c **** 			{0x08u, 0x04u},
 438:.\Generated_Source\PSoC4/cyfitter_cfg.c **** 			{0x0Bu, 0x04u},
 439:.\Generated_Source\PSoC4/cyfitter_cfg.c **** 			{0x0Cu, 0x03u},
 440:.\Generated_Source\PSoC4/cyfitter_cfg.c **** 			{0x0Du, 0x80u},
 441:.\Generated_Source\PSoC4/cyfitter_cfg.c **** 			{0x10u, 0x33u},
 442:.\Generated_Source\PSoC4/cyfitter_cfg.c **** 			{0x12u, 0x0Cu},
 443:.\Generated_Source\PSoC4/cyfitter_cfg.c **** 			{0x13u, 0xE3u},
 444:.\Generated_Source\PSoC4/cyfitter_cfg.c **** 			{0x14u, 0x0Cu},
 445:.\Generated_Source\PSoC4/cyfitter_cfg.c **** 			{0x15u, 0x3Cu},
 446:.\Generated_Source\PSoC4/cyfitter_cfg.c **** 			{0x17u, 0xC2u},
 447:.\Generated_Source\PSoC4/cyfitter_cfg.c **** 			{0x18u, 0x02u},
 448:.\Generated_Source\PSoC4/cyfitter_cfg.c **** 			{0x19u, 0x18u},
 449:.\Generated_Source\PSoC4/cyfitter_cfg.c **** 			{0x1Cu, 0x1Fu},
 450:.\Generated_Source\PSoC4/cyfitter_cfg.c **** 			{0x1Du, 0x44u},
 451:.\Generated_Source\PSoC4/cyfitter_cfg.c **** 			{0x1Eu, 0x20u},
 452:.\Generated_Source\PSoC4/cyfitter_cfg.c **** 			{0x20u, 0x01u},
 453:.\Generated_Source\PSoC4/cyfitter_cfg.c **** 			{0x21u, 0x1Cu},
ARM GAS  C:\Users\JOHNNY~1\AppData\Local\Temp\cc7joSo9.s 			page 18


 454:.\Generated_Source\PSoC4/cyfitter_cfg.c **** 			{0x23u, 0xE1u},
 455:.\Generated_Source\PSoC4/cyfitter_cfg.c **** 			{0x24u, 0x1Cu},
 456:.\Generated_Source\PSoC4/cyfitter_cfg.c **** 			{0x25u, 0xE7u},
 457:.\Generated_Source\PSoC4/cyfitter_cfg.c **** 			{0x26u, 0x23u},
 458:.\Generated_Source\PSoC4/cyfitter_cfg.c **** 			{0x27u, 0x18u},
 459:.\Generated_Source\PSoC4/cyfitter_cfg.c **** 			{0x28u, 0x3Fu},
 460:.\Generated_Source\PSoC4/cyfitter_cfg.c **** 			{0x29u, 0x08u},
 461:.\Generated_Source\PSoC4/cyfitter_cfg.c **** 			{0x2Cu, 0x08u},
 462:.\Generated_Source\PSoC4/cyfitter_cfg.c **** 			{0x2Du, 0xC0u},
 463:.\Generated_Source\PSoC4/cyfitter_cfg.c **** 			{0x30u, 0x0Fu},
 464:.\Generated_Source\PSoC4/cyfitter_cfg.c **** 			{0x31u, 0x38u},
 465:.\Generated_Source\PSoC4/cyfitter_cfg.c **** 			{0x32u, 0x10u},
 466:.\Generated_Source\PSoC4/cyfitter_cfg.c **** 			{0x34u, 0x0Fu},
 467:.\Generated_Source\PSoC4/cyfitter_cfg.c **** 			{0x35u, 0x1Fu},
 468:.\Generated_Source\PSoC4/cyfitter_cfg.c **** 			{0x36u, 0x2Cu},
 469:.\Generated_Source\PSoC4/cyfitter_cfg.c **** 			{0x37u, 0xC0u},
 470:.\Generated_Source\PSoC4/cyfitter_cfg.c **** 			{0x3Au, 0xA2u},
 471:.\Generated_Source\PSoC4/cyfitter_cfg.c **** 			{0x3Bu, 0x28u},
 472:.\Generated_Source\PSoC4/cyfitter_cfg.c **** 			{0x3Eu, 0x04u},
 473:.\Generated_Source\PSoC4/cyfitter_cfg.c **** 			{0x56u, 0x02u},
 474:.\Generated_Source\PSoC4/cyfitter_cfg.c **** 			{0x57u, 0x11u},
 475:.\Generated_Source\PSoC4/cyfitter_cfg.c **** 			{0x58u, 0x04u},
 476:.\Generated_Source\PSoC4/cyfitter_cfg.c **** 			{0x59u, 0x04u},
 477:.\Generated_Source\PSoC4/cyfitter_cfg.c **** 			{0x5Bu, 0x04u},
 478:.\Generated_Source\PSoC4/cyfitter_cfg.c **** 			{0x5Fu, 0x01u},
 479:.\Generated_Source\PSoC4/cyfitter_cfg.c **** 			{0x05u, 0xE1u},
 480:.\Generated_Source\PSoC4/cyfitter_cfg.c **** 			{0x0Cu, 0x08u},
 481:.\Generated_Source\PSoC4/cyfitter_cfg.c **** 			{0x0Du, 0x02u},
 482:.\Generated_Source\PSoC4/cyfitter_cfg.c **** 			{0x0Eu, 0x09u},
 483:.\Generated_Source\PSoC4/cyfitter_cfg.c **** 			{0x14u, 0x40u},
 484:.\Generated_Source\PSoC4/cyfitter_cfg.c **** 			{0x16u, 0x02u},
 485:.\Generated_Source\PSoC4/cyfitter_cfg.c **** 			{0x17u, 0x14u},
 486:.\Generated_Source\PSoC4/cyfitter_cfg.c **** 			{0x1Du, 0x22u},
 487:.\Generated_Source\PSoC4/cyfitter_cfg.c **** 			{0x1Eu, 0x11u},
 488:.\Generated_Source\PSoC4/cyfitter_cfg.c **** 			{0x1Fu, 0x22u},
 489:.\Generated_Source\PSoC4/cyfitter_cfg.c **** 			{0x24u, 0x01u},
 490:.\Generated_Source\PSoC4/cyfitter_cfg.c **** 			{0x25u, 0x04u},
 491:.\Generated_Source\PSoC4/cyfitter_cfg.c **** 			{0x26u, 0x2Au},
 492:.\Generated_Source\PSoC4/cyfitter_cfg.c **** 			{0x27u, 0x14u},
 493:.\Generated_Source\PSoC4/cyfitter_cfg.c **** 			{0x2Du, 0xA0u},
 494:.\Generated_Source\PSoC4/cyfitter_cfg.c **** 			{0x2Eu, 0x01u},
 495:.\Generated_Source\PSoC4/cyfitter_cfg.c **** 			{0x2Fu, 0x20u},
 496:.\Generated_Source\PSoC4/cyfitter_cfg.c **** 			{0x34u, 0x40u},
 497:.\Generated_Source\PSoC4/cyfitter_cfg.c **** 			{0x35u, 0x01u},
 498:.\Generated_Source\PSoC4/cyfitter_cfg.c **** 			{0x37u, 0x24u},
 499:.\Generated_Source\PSoC4/cyfitter_cfg.c **** 			{0x3Cu, 0x40u},
 500:.\Generated_Source\PSoC4/cyfitter_cfg.c **** 			{0x3Du, 0x28u},
 501:.\Generated_Source\PSoC4/cyfitter_cfg.c **** 			{0x3Eu, 0x02u},
 502:.\Generated_Source\PSoC4/cyfitter_cfg.c **** 			{0x5Eu, 0x10u},
 503:.\Generated_Source\PSoC4/cyfitter_cfg.c **** 			{0x6Cu, 0x15u},
 504:.\Generated_Source\PSoC4/cyfitter_cfg.c **** 			{0x74u, 0x08u},
 505:.\Generated_Source\PSoC4/cyfitter_cfg.c **** 			{0x75u, 0x20u},
 506:.\Generated_Source\PSoC4/cyfitter_cfg.c **** 			{0x76u, 0x02u},
 507:.\Generated_Source\PSoC4/cyfitter_cfg.c **** 			{0x77u, 0x20u},
 508:.\Generated_Source\PSoC4/cyfitter_cfg.c **** 			{0x90u, 0x40u},
 509:.\Generated_Source\PSoC4/cyfitter_cfg.c **** 			{0x94u, 0x2Bu},
 510:.\Generated_Source\PSoC4/cyfitter_cfg.c **** 			{0x96u, 0x01u},
ARM GAS  C:\Users\JOHNNY~1\AppData\Local\Temp\cc7joSo9.s 			page 19


 511:.\Generated_Source\PSoC4/cyfitter_cfg.c **** 			{0x98u, 0x40u},
 512:.\Generated_Source\PSoC4/cyfitter_cfg.c **** 			{0x99u, 0x41u},
 513:.\Generated_Source\PSoC4/cyfitter_cfg.c **** 			{0xA1u, 0x10u},
 514:.\Generated_Source\PSoC4/cyfitter_cfg.c **** 			{0xA2u, 0x04u},
 515:.\Generated_Source\PSoC4/cyfitter_cfg.c **** 			{0xA5u, 0x20u},
 516:.\Generated_Source\PSoC4/cyfitter_cfg.c **** 			{0xA6u, 0x2Au},
 517:.\Generated_Source\PSoC4/cyfitter_cfg.c **** 			{0xA7u, 0x02u},
 518:.\Generated_Source\PSoC4/cyfitter_cfg.c **** 			{0xB0u, 0x48u},
 519:.\Generated_Source\PSoC4/cyfitter_cfg.c **** 			{0xB4u, 0x40u},
 520:.\Generated_Source\PSoC4/cyfitter_cfg.c **** 			{0xB6u, 0x04u},
 521:.\Generated_Source\PSoC4/cyfitter_cfg.c **** 			{0xC0u, 0xD0u},
 522:.\Generated_Source\PSoC4/cyfitter_cfg.c **** 			{0xC2u, 0xF0u},
 523:.\Generated_Source\PSoC4/cyfitter_cfg.c **** 			{0xC4u, 0xF0u},
 524:.\Generated_Source\PSoC4/cyfitter_cfg.c **** 			{0xCAu, 0xF0u},
 525:.\Generated_Source\PSoC4/cyfitter_cfg.c **** 			{0xCCu, 0xF0u},
 526:.\Generated_Source\PSoC4/cyfitter_cfg.c **** 			{0xCEu, 0xF0u},
 527:.\Generated_Source\PSoC4/cyfitter_cfg.c **** 			{0xD6u, 0x20u},
 528:.\Generated_Source\PSoC4/cyfitter_cfg.c **** 			{0xE8u, 0x80u},
 529:.\Generated_Source\PSoC4/cyfitter_cfg.c **** 			{0x01u, 0x08u},
 530:.\Generated_Source\PSoC4/cyfitter_cfg.c **** 			{0x86u, 0x40u},
 531:.\Generated_Source\PSoC4/cyfitter_cfg.c **** 			{0xC0u, 0x10u},
 532:.\Generated_Source\PSoC4/cyfitter_cfg.c **** 			{0xE6u, 0x40u},
 533:.\Generated_Source\PSoC4/cyfitter_cfg.c **** 			{0x6Eu, 0x80u},
 534:.\Generated_Source\PSoC4/cyfitter_cfg.c **** 			{0xA2u, 0x40u},
 535:.\Generated_Source\PSoC4/cyfitter_cfg.c **** 			{0xB1u, 0x08u},
 536:.\Generated_Source\PSoC4/cyfitter_cfg.c **** 			{0xDAu, 0x80u},
 537:.\Generated_Source\PSoC4/cyfitter_cfg.c **** 			{0x01u, 0x01u},
 538:.\Generated_Source\PSoC4/cyfitter_cfg.c **** 			{0x10u, 0x01u},
 539:.\Generated_Source\PSoC4/cyfitter_cfg.c **** 		};
 540:.\Generated_Source\PSoC4/cyfitter_cfg.c **** 
 541:.\Generated_Source\PSoC4/cyfitter_cfg.c **** 
 542:.\Generated_Source\PSoC4/cyfitter_cfg.c **** 
 543:.\Generated_Source\PSoC4/cyfitter_cfg.c **** 		CYPACKED typedef struct {
 544:.\Generated_Source\PSoC4/cyfitter_cfg.c **** 			void CYFAR *address;
 545:.\Generated_Source\PSoC4/cyfitter_cfg.c **** 			uint16 size;
 546:.\Generated_Source\PSoC4/cyfitter_cfg.c **** 		} CYPACKED_ATTR cfg_memset_t;
 547:.\Generated_Source\PSoC4/cyfitter_cfg.c **** 
 548:.\Generated_Source\PSoC4/cyfitter_cfg.c **** 		static const cfg_memset_t CYCODE cfg_memset_list [] = {
 549:.\Generated_Source\PSoC4/cyfitter_cfg.c **** 			/* address, size */
 550:.\Generated_Source\PSoC4/cyfitter_cfg.c **** 			{(void CYFAR *)(CYDEV_UDB_P0_U0_BASE), 1024u},
 551:.\Generated_Source\PSoC4/cyfitter_cfg.c **** 			{(void CYFAR *)(CYDEV_UDB_DSI0_BASE), 1024u},
 552:.\Generated_Source\PSoC4/cyfitter_cfg.c **** 		};
 553:.\Generated_Source\PSoC4/cyfitter_cfg.c **** 
 554:.\Generated_Source\PSoC4/cyfitter_cfg.c **** 		uint8 CYDATA i;
 555:.\Generated_Source\PSoC4/cyfitter_cfg.c **** 
 556:.\Generated_Source\PSoC4/cyfitter_cfg.c **** 		/* Zero out critical memory blocks before beginning configuration */
 557:.\Generated_Source\PSoC4/cyfitter_cfg.c **** 		for (i = 0u; i < (sizeof(cfg_memset_list)/sizeof(cfg_memset_list[0])); i++)
 514              		.loc 1 557 0
 515 0104 FB1D     		add	r3, r7, #7
 516 0106 0022     		mov	r2, #0
 517 0108 1A70     		strb	r2, [r3]
 518 010a 23E0     		b	.L21
 519              	.L22:
 520              	.LBB4:
 558:.\Generated_Source\PSoC4/cyfitter_cfg.c **** 		{
 559:.\Generated_Source\PSoC4/cyfitter_cfg.c **** 			const cfg_memset_t CYCODE * CYDATA ms = &cfg_memset_list[i];
 521              		.loc 1 559 0 discriminator 3
ARM GAS  C:\Users\JOHNNY~1\AppData\Local\Temp\cc7joSo9.s 			page 20


 522 010c FB1D     		add	r3, r7, #7
 523 010e 1A78     		ldrb	r2, [r3]
 524 0110 131C     		mov	r3, r2
 525 0112 5B00     		lsl	r3, r3, #1
 526 0114 9B18     		add	r3, r3, r2
 527 0116 5B00     		lsl	r3, r3, #1
 528 0118 484A     		ldr	r2, .L23+8
 529 011a 9B18     		add	r3, r3, r2
 530 011c 3B60     		str	r3, [r7]
 560:.\Generated_Source\PSoC4/cyfitter_cfg.c **** 			CYMEMZERO(ms->address, (size_t)(uint32)(ms->size));
 531              		.loc 1 560 0 discriminator 3
 532 011e 3B68     		ldr	r3, [r7]
 533 0120 1A78     		ldrb	r2, [r3]
 534 0122 5978     		ldrb	r1, [r3, #1]
 535 0124 0902     		lsl	r1, r1, #8
 536 0126 0A43     		orr	r2, r1
 537 0128 9978     		ldrb	r1, [r3, #2]
 538 012a 0904     		lsl	r1, r1, #16
 539 012c 0A43     		orr	r2, r1
 540 012e DB78     		ldrb	r3, [r3, #3]
 541 0130 1B06     		lsl	r3, r3, #24
 542 0132 1343     		orr	r3, r2
 543 0134 191C     		mov	r1, r3
 544 0136 3B68     		ldr	r3, [r7]
 545 0138 1A79     		ldrb	r2, [r3, #4]
 546 013a 5B79     		ldrb	r3, [r3, #5]
 547 013c 1B02     		lsl	r3, r3, #8
 548 013e 1343     		orr	r3, r2
 549 0140 9BB2     		uxth	r3, r3
 550 0142 081C     		mov	r0, r1
 551 0144 191C     		mov	r1, r3
 552 0146 FFF7FEFF 		bl	CYMEMZERO
 553              	.LBE4:
 557:.\Generated_Source\PSoC4/cyfitter_cfg.c **** 		{
 554              		.loc 1 557 0 discriminator 3
 555 014a FB1D     		add	r3, r7, #7
 556 014c 1A78     		ldrb	r2, [r3]
 557 014e FB1D     		add	r3, r7, #7
 558 0150 0132     		add	r2, r2, #1
 559 0152 1A70     		strb	r2, [r3]
 560              	.L21:
 557:.\Generated_Source\PSoC4/cyfitter_cfg.c **** 		{
 561              		.loc 1 557 0 is_stmt 0 discriminator 1
 562 0154 FB1D     		add	r3, r7, #7
 563 0156 1B78     		ldrb	r3, [r3]
 564 0158 012B     		cmp	r3, #1
 565 015a D7D9     		bls	.L22
 561:.\Generated_Source\PSoC4/cyfitter_cfg.c **** 		}
 562:.\Generated_Source\PSoC4/cyfitter_cfg.c **** 
 563:.\Generated_Source\PSoC4/cyfitter_cfg.c **** 		cfg_write_bytes32(cy_cfg_addr_table, cy_cfg_data_table);
 566              		.loc 1 563 0 is_stmt 1
 567 015c 384A     		ldr	r2, .L23+12
 568 015e 394B     		ldr	r3, .L23+16
 569 0160 101C     		mov	r0, r2
 570 0162 191C     		mov	r1, r3
 571 0164 FFF7FEFF 		bl	cfg_write_bytes32
 564:.\Generated_Source\PSoC4/cyfitter_cfg.c **** 
ARM GAS  C:\Users\JOHNNY~1\AppData\Local\Temp\cc7joSo9.s 			page 21


 565:.\Generated_Source\PSoC4/cyfitter_cfg.c **** 		/* HSIOM Starting address: CYDEV_HSIOM_BASE */
 566:.\Generated_Source\PSoC4/cyfitter_cfg.c **** 		CY_SET_XTND_REG32((void CYFAR *)(CYDEV_HSIOM_BASE), 0xEE000000u);
 572              		.loc 1 566 0
 573 0168 374B     		ldr	r3, .L23+20
 574 016a EE22     		mov	r2, #238
 575 016c 1206     		lsl	r2, r2, #24
 576 016e 1A60     		str	r2, [r3]
 567:.\Generated_Source\PSoC4/cyfitter_cfg.c **** 		CY_SET_XTND_REG32((void CYFAR *)(CYREG_HSIOM_PORT_SEL1), 0x00990000u);
 577              		.loc 1 567 0
 578 0170 364B     		ldr	r3, .L23+24
 579 0172 9922     		mov	r2, #153
 580 0174 1204     		lsl	r2, r2, #16
 581 0176 1A60     		str	r2, [r3]
 568:.\Generated_Source\PSoC4/cyfitter_cfg.c **** 
 569:.\Generated_Source\PSoC4/cyfitter_cfg.c **** 		/* UDB_PA_0 Starting address: CYDEV_UDB_PA0_BASE */
 570:.\Generated_Source\PSoC4/cyfitter_cfg.c **** 		CY_SET_XTND_REG32((void CYFAR *)(CYDEV_UDB_PA0_BASE), 0x00990000u);
 582              		.loc 1 570 0
 583 0178 354B     		ldr	r3, .L23+28
 584 017a 9922     		mov	r2, #153
 585 017c 1204     		lsl	r2, r2, #16
 586 017e 1A60     		str	r2, [r3]
 571:.\Generated_Source\PSoC4/cyfitter_cfg.c **** 
 572:.\Generated_Source\PSoC4/cyfitter_cfg.c **** 		/* UDB_PA_1 Starting address: CYDEV_UDB_PA1_BASE */
 573:.\Generated_Source\PSoC4/cyfitter_cfg.c **** 		CY_SET_XTND_REG32((void CYFAR *)(CYDEV_UDB_PA1_BASE), 0x00990000u);
 587              		.loc 1 573 0
 588 0180 344B     		ldr	r3, .L23+32
 589 0182 9922     		mov	r2, #153
 590 0184 1204     		lsl	r2, r2, #16
 591 0186 1A60     		str	r2, [r3]
 574:.\Generated_Source\PSoC4/cyfitter_cfg.c **** 
 575:.\Generated_Source\PSoC4/cyfitter_cfg.c **** 		/* UDB_PA_2 Starting address: CYDEV_UDB_PA2_BASE */
 576:.\Generated_Source\PSoC4/cyfitter_cfg.c **** 		CY_SET_XTND_REG32((void CYFAR *)(CYDEV_UDB_PA2_BASE), 0x00990000u);
 592              		.loc 1 576 0
 593 0188 334B     		ldr	r3, .L23+36
 594 018a 9922     		mov	r2, #153
 595 018c 1204     		lsl	r2, r2, #16
 596 018e 1A60     		str	r2, [r3]
 577:.\Generated_Source\PSoC4/cyfitter_cfg.c **** 
 578:.\Generated_Source\PSoC4/cyfitter_cfg.c **** 		/* UDB_PA_3 Starting address: CYDEV_UDB_PA3_BASE */
 579:.\Generated_Source\PSoC4/cyfitter_cfg.c **** 		CY_SET_XTND_REG32((void CYFAR *)(CYDEV_UDB_PA3_BASE), 0x00990000u);
 597              		.loc 1 579 0
 598 0190 324B     		ldr	r3, .L23+40
 599 0192 9922     		mov	r2, #153
 600 0194 1204     		lsl	r2, r2, #16
 601 0196 1A60     		str	r2, [r3]
 580:.\Generated_Source\PSoC4/cyfitter_cfg.c **** 
 581:.\Generated_Source\PSoC4/cyfitter_cfg.c **** 		/* INT_SELECT Starting address: CYDEV_CPUSS_INT_SEL */
 582:.\Generated_Source\PSoC4/cyfitter_cfg.c **** 		CY_SET_XTND_REG32((void CYFAR *)(CYREG_CPUSS_INT_SEL), 0x00000002u);
 602              		.loc 1 582 0
 603 0198 314B     		ldr	r3, .L23+44
 604 019a 0222     		mov	r2, #2
 605 019c 1A60     		str	r2, [r3]
 583:.\Generated_Source\PSoC4/cyfitter_cfg.c **** 
 584:.\Generated_Source\PSoC4/cyfitter_cfg.c **** 		/* INT_CONFIG Starting address: CYDEV_UDB_INT_CFG */
 585:.\Generated_Source\PSoC4/cyfitter_cfg.c **** 		CY_SET_XTND_REG32((void CYFAR *)(CYREG_UDB_INT_CFG), 0x00000002u);
 606              		.loc 1 585 0
 607 019e 314B     		ldr	r3, .L23+48
ARM GAS  C:\Users\JOHNNY~1\AppData\Local\Temp\cc7joSo9.s 			page 22


 608 01a0 0222     		mov	r2, #2
 609 01a2 1A60     		str	r2, [r3]
 586:.\Generated_Source\PSoC4/cyfitter_cfg.c **** 
 587:.\Generated_Source\PSoC4/cyfitter_cfg.c **** 		/* Enable digital routing */
 588:.\Generated_Source\PSoC4/cyfitter_cfg.c **** 		CY_SET_XTND_REG8((void *)CYREG_UDB_UDBIF_BANK_CTL, CY_GET_XTND_REG8((void *)CYREG_UDB_UDBIF_BANK_
 610              		.loc 1 588 0
 611 01a4 304A     		ldr	r2, .L23+52
 612 01a6 304B     		ldr	r3, .L23+52
 613 01a8 1B78     		ldrb	r3, [r3]
 614 01aa DBB2     		uxtb	r3, r3
 615 01ac 0221     		mov	r1, #2
 616 01ae 0B43     		orr	r3, r1
 617 01b0 DBB2     		uxtb	r3, r3
 618 01b2 1370     		strb	r3, [r2]
 589:.\Generated_Source\PSoC4/cyfitter_cfg.c **** 
 590:.\Generated_Source\PSoC4/cyfitter_cfg.c **** 		/* Enable UDB array */
 591:.\Generated_Source\PSoC4/cyfitter_cfg.c **** 		CY_SET_XTND_REG8((void *)CYREG_UDB_UDBIF_WAIT_CFG, (uint8)((CY_GET_XTND_REG8((void *)CYREG_UDB_UD
 619              		.loc 1 591 0
 620 01b4 2D4A     		ldr	r2, .L23+56
 621 01b6 2D4B     		ldr	r3, .L23+56
 622 01b8 1B78     		ldrb	r3, [r3]
 623 01ba DBB2     		uxtb	r3, r3
 624 01bc 3C21     		mov	r1, #60
 625 01be 8B43     		bic	r3, r1
 626 01c0 DBB2     		uxtb	r3, r3
 627 01c2 1421     		mov	r1, #20
 628 01c4 0B43     		orr	r3, r1
 629 01c6 DBB2     		uxtb	r3, r3
 630 01c8 1370     		strb	r3, [r2]
 592:.\Generated_Source\PSoC4/cyfitter_cfg.c **** 		CY_SET_XTND_REG8((void *)CYREG_UDB_UDBIF_BANK_CTL, (uint8)(CY_GET_XTND_REG8((void *)CYREG_UDB_UDB
 631              		.loc 1 592 0
 632 01ca 274A     		ldr	r2, .L23+52
 633 01cc 264B     		ldr	r3, .L23+52
 634 01ce 1B78     		ldrb	r3, [r3]
 635 01d0 DBB2     		uxtb	r3, r3
 636 01d2 1621     		mov	r1, #22
 637 01d4 0B43     		orr	r3, r1
 638 01d6 DBB2     		uxtb	r3, r3
 639 01d8 1370     		strb	r3, [r2]
 640              	.LBE3:
 593:.\Generated_Source\PSoC4/cyfitter_cfg.c **** 	}
 594:.\Generated_Source\PSoC4/cyfitter_cfg.c **** 
 595:.\Generated_Source\PSoC4/cyfitter_cfg.c **** 	/* Perform second pass device configuration. These items must be configured in specific order afte
 596:.\Generated_Source\PSoC4/cyfitter_cfg.c **** 	/* IOPINS0_0 Starting address: CYDEV_GPIO_PRT0_BASE */
 597:.\Generated_Source\PSoC4/cyfitter_cfg.c **** 	CY_SET_XTND_REG32((void CYFAR *)(CYDEV_GPIO_PRT0_BASE), 0x00000001u);
 641              		.loc 1 597 0
 642 01da 254B     		ldr	r3, .L23+60
 643 01dc 0122     		mov	r2, #1
 644 01de 1A60     		str	r2, [r3]
 598:.\Generated_Source\PSoC4/cyfitter_cfg.c **** 	CY_SET_XTND_REG32((void CYFAR *)(CYREG_GPIO_PRT0_PC), 0x00D80001u);
 645              		.loc 1 598 0
 646 01e0 244B     		ldr	r3, .L23+64
 647 01e2 254A     		ldr	r2, .L23+68
 648 01e4 1A60     		str	r2, [r3]
 599:.\Generated_Source\PSoC4/cyfitter_cfg.c **** 
 600:.\Generated_Source\PSoC4/cyfitter_cfg.c **** 	/* IOPINS0_1 Starting address: CYDEV_GPIO_PRT1_BASE */
 601:.\Generated_Source\PSoC4/cyfitter_cfg.c **** 	CY_SET_XTND_REG32((void CYFAR *)(CYDEV_GPIO_PRT1_BASE), 0x00000020u);
ARM GAS  C:\Users\JOHNNY~1\AppData\Local\Temp\cc7joSo9.s 			page 23


 649              		.loc 1 601 0
 650 01e6 254B     		ldr	r3, .L23+72
 651 01e8 2022     		mov	r2, #32
 652 01ea 1A60     		str	r2, [r3]
 602:.\Generated_Source\PSoC4/cyfitter_cfg.c **** 	CY_SET_XTND_REG32((void CYFAR *)(CYREG_GPIO_PRT1_PC), 0x00031000u);
 653              		.loc 1 602 0
 654 01ec 244B     		ldr	r3, .L23+76
 655 01ee C422     		mov	r2, #196
 656 01f0 9202     		lsl	r2, r2, #10
 657 01f2 1A60     		str	r2, [r3]
 603:.\Generated_Source\PSoC4/cyfitter_cfg.c **** 	CY_SET_XTND_REG32((void CYFAR *)(CYREG_GPIO_PRT1_PC2), 0x00000020u);
 658              		.loc 1 603 0
 659 01f4 234B     		ldr	r3, .L23+80
 660 01f6 2022     		mov	r2, #32
 661 01f8 1A60     		str	r2, [r3]
 604:.\Generated_Source\PSoC4/cyfitter_cfg.c **** 
 605:.\Generated_Source\PSoC4/cyfitter_cfg.c **** 	/* IOPINS0_2 Starting address: CYDEV_GPIO_PRT2_BASE */
 606:.\Generated_Source\PSoC4/cyfitter_cfg.c **** 	CY_SET_XTND_REG32((void CYFAR *)(CYDEV_GPIO_PRT2_BASE), 0x000000C0u);
 662              		.loc 1 606 0
 663 01fa 234B     		ldr	r3, .L23+84
 664 01fc C022     		mov	r2, #192
 665 01fe 1A60     		str	r2, [r3]
 607:.\Generated_Source\PSoC4/cyfitter_cfg.c **** 	CY_SET_XTND_REG32((void CYFAR *)(CYREG_GPIO_PRT2_PC), 0x00580000u);
 666              		.loc 1 607 0
 667 0200 224B     		ldr	r3, .L23+88
 668 0202 B022     		mov	r2, #176
 669 0204 D203     		lsl	r2, r2, #15
 670 0206 1A60     		str	r2, [r3]
 608:.\Generated_Source\PSoC4/cyfitter_cfg.c **** 	CY_SET_XTND_REG32((void CYFAR *)(CYREG_GPIO_PRT2_INTR_CFG), 0x00008000u);
 671              		.loc 1 608 0
 672 0208 214B     		ldr	r3, .L23+92
 673 020a 8022     		mov	r2, #128
 674 020c 1202     		lsl	r2, r2, #8
 675 020e 1A60     		str	r2, [r3]
 609:.\Generated_Source\PSoC4/cyfitter_cfg.c **** 
 610:.\Generated_Source\PSoC4/cyfitter_cfg.c **** 	/* IOPINS0_3 Starting address: CYDEV_GPIO_PRT3_BASE */
 611:.\Generated_Source\PSoC4/cyfitter_cfg.c **** 	CY_SET_XTND_REG32((void CYFAR *)(CYDEV_GPIO_PRT3_BASE), 0x000000C1u);
 676              		.loc 1 611 0
 677 0210 204B     		ldr	r3, .L23+96
 678 0212 C122     		mov	r2, #193
 679 0214 1A60     		str	r2, [r3]
 612:.\Generated_Source\PSoC4/cyfitter_cfg.c **** 	CY_SET_XTND_REG32((void CYFAR *)(CYREG_GPIO_PRT3_PC), 0x00D80000u);
 680              		.loc 1 612 0
 681 0216 204B     		ldr	r3, .L23+100
 682 0218 D822     		mov	r2, #216
 683 021a 1204     		lsl	r2, r2, #16
 684 021c 1A60     		str	r2, [r3]
 613:.\Generated_Source\PSoC4/cyfitter_cfg.c **** 	CY_SET_XTND_REG32((void CYFAR *)(CYREG_GPIO_PRT3_PC2), 0x00000001u);
 685              		.loc 1 613 0
 686 021e 1F4B     		ldr	r3, .L23+104
 687 0220 0122     		mov	r2, #1
 688 0222 1A60     		str	r2, [r3]
 614:.\Generated_Source\PSoC4/cyfitter_cfg.c **** 
 615:.\Generated_Source\PSoC4/cyfitter_cfg.c **** 
 616:.\Generated_Source\PSoC4/cyfitter_cfg.c **** 	/* Setup clocks based on selections from Clock DWR */
 617:.\Generated_Source\PSoC4/cyfitter_cfg.c **** 	ClockSetup();
 689              		.loc 1 617 0
ARM GAS  C:\Users\JOHNNY~1\AppData\Local\Temp\cc7joSo9.s 			page 24


 690 0224 FFF7ECFE 		bl	ClockSetup
 618:.\Generated_Source\PSoC4/cyfitter_cfg.c **** 
 619:.\Generated_Source\PSoC4/cyfitter_cfg.c **** 	/* Perform basic analog initialization to defaults */
 620:.\Generated_Source\PSoC4/cyfitter_cfg.c **** 	AnalogSetDefault();
 691              		.loc 1 620 0
 692 0228 FFF7FEFF 		bl	AnalogSetDefault
 621:.\Generated_Source\PSoC4/cyfitter_cfg.c **** 
 622:.\Generated_Source\PSoC4/cyfitter_cfg.c **** }
 693              		.loc 1 622 0
 694 022c BD46     		mov	sp, r7
 695 022e 02B0     		add	sp, sp, #8
 696              		@ sp needed
 697 0230 80BD     		pop	{r7, pc}
 698              	.L24:
 699 0232 C046     		.align	2
 700              	.L23:
 701 0234 6CF02E40 		.word	1076818028
 702 0238 1C700F40 		.word	1074753564
 703 023c 00000000 		.word	cfg_memset_list.4771
 704 0240 0C000000 		.word	cy_cfg_addr_table.4765
 705 0244 2C000000 		.word	cy_cfg_data_table.4766
 706 0248 00000240 		.word	1073872896
 707 024c 00010240 		.word	1073873152
 708 0250 00500F40 		.word	1074745344
 709 0254 10500F40 		.word	1074745360
 710 0258 20500F40 		.word	1074745376
 711 025c 30500F40 		.word	1074745392
 712 0260 20001040 		.word	1074790432
 713 0264 00800F40 		.word	1074757632
 714 0268 00700F40 		.word	1074753536
 715 026c 01700F40 		.word	1074753537
 716 0270 00000440 		.word	1074003968
 717 0274 08000440 		.word	1074003976
 718 0278 0100D800 		.word	14155777
 719 027c 00010440 		.word	1074004224
 720 0280 08010440 		.word	1074004232
 721 0284 18010440 		.word	1074004248
 722 0288 00020440 		.word	1074004480
 723 028c 08020440 		.word	1074004488
 724 0290 0C020440 		.word	1074004492
 725 0294 00030440 		.word	1074004736
 726 0298 08030440 		.word	1074004744
 727 029c 18030440 		.word	1074004760
 728              		.cfi_endproc
 729              	.LFE9:
 730              		.size	cyfitter_cfg, .-cyfitter_cfg
 731              		.section	.rodata
 732              		.align	2
 733              		.type	cfg_memset_list.4771, %object
 734              		.size	cfg_memset_list.4771, 12
 735              	cfg_memset_list.4771:
 736 0000 00300F40 		.word	1074737152
 737 0004 0004     		.short	1024
 738 0006 00400F40 		.4byte	1074741248
 739 000a 0004     		.short	1024
 740              		.align	2
 741              		.type	cy_cfg_addr_table.4765, %object
ARM GAS  C:\Users\JOHNNY~1\AppData\Local\Temp\cc7joSo9.s 			page 25


 742              		.size	cy_cfg_addr_table.4765, 32
 743              	cy_cfg_addr_table.4765:
 744 000c 02000F40 		.word	1074724866
 745 0010 3A300F40 		.word	1074737210
 746 0014 26310F40 		.word	1074737446
 747 0018 2D320F40 		.word	1074737709
 748 001c 32330F40 		.word	1074737970
 749 0020 04400F40 		.word	1074741252
 750 0024 04410F40 		.word	1074741508
 751 0028 02600F40 		.word	1074749442
 752              		.align	2
 753              		.type	cy_cfg_data_table.4766, %object
 754              		.size	cy_cfg_data_table.4766, 406
 755              	cy_cfg_data_table.4766:
 756 002c 81       		.byte	-127
 757 002d 38       		.byte	56
 758 002e 82       		.byte	-126
 759 002f 72       		.byte	114
 760 0030 80       		.byte	-128
 761 0031 80       		.byte	-128
 762 0032 83       		.byte	-125
 763 0033 01       		.byte	1
 764 0034 84       		.byte	-124
 765 0035 E7       		.byte	-25
 766 0036 88       		.byte	-120
 767 0037 E7       		.byte	-25
 768 0038 8F       		.byte	-113
 769 0039 08       		.byte	8
 770 003a 93       		.byte	-109
 771 003b 08       		.byte	8
 772 003c 95       		.byte	-107
 773 003d 01       		.byte	1
 774 003e 98       		.byte	-104
 775 003f 44       		.byte	68
 776 0040 9A       		.byte	-102
 777 0041 31       		.byte	49
 778 0042 9B       		.byte	-101
 779 0043 01       		.byte	1
 780 0044 9C       		.byte	-100
 781 0045 01       		.byte	1
 782 0046 9E       		.byte	-98
 783 0047 0E       		.byte	14
 784 0048 9F       		.byte	-97
 785 0049 02       		.byte	2
 786 004a A3       		.byte	-93
 787 004b 04       		.byte	4
 788 004c A7       		.byte	-89
 789 004d 02       		.byte	2
 790 004e A8       		.byte	-88
 791 004f 22       		.byte	34
 792 0050 AA       		.byte	-86
 793 0051 51       		.byte	81
 794 0052 AD       		.byte	-83
 795 0053 01       		.byte	1
 796 0054 B0       		.byte	-80
 797 0055 80       		.byte	-128
 798 0056 B1       		.byte	-79
ARM GAS  C:\Users\JOHNNY~1\AppData\Local\Temp\cc7joSo9.s 			page 26


 799 0057 01       		.byte	1
 800 0058 B2       		.byte	-78
 801 0059 18       		.byte	24
 802 005a B3       		.byte	-77
 803 005b 02       		.byte	2
 804 005c B4       		.byte	-76
 805 005d 60       		.byte	96
 806 005e B5       		.byte	-75
 807 005f 04       		.byte	4
 808 0060 B6       		.byte	-74
 809 0061 07       		.byte	7
 810 0062 B7       		.byte	-73
 811 0063 08       		.byte	8
 812 0064 B9       		.byte	-71
 813 0065 02       		.byte	2
 814 0066 BE       		.byte	-66
 815 0067 04       		.byte	4
 816 0068 BF       		.byte	-65
 817 0069 44       		.byte	68
 818 006a C0       		.byte	-64
 819 006b 21       		.byte	33
 820 006c C1       		.byte	-63
 821 006d 06       		.byte	6
 822 006e C2       		.byte	-62
 823 006f 05       		.byte	5
 824 0070 C4       		.byte	-60
 825 0071 03       		.byte	3
 826 0072 C6       		.byte	-58
 827 0073 EC       		.byte	-20
 828 0074 C8       		.byte	-56
 829 0075 0C       		.byte	12
 830 0076 C9       		.byte	-55
 831 0077 FF       		.byte	-1
 832 0078 CA       		.byte	-54
 833 0079 FF       		.byte	-1
 834 007a CB       		.byte	-53
 835 007b FF       		.byte	-1
 836 007c CC       		.byte	-52
 837 007d 62       		.byte	98
 838 007e CD       		.byte	-51
 839 007f A0       		.byte	-96
 840 0080 CE       		.byte	-50
 841 0081 F0       		.byte	-16
 842 0082 CF       		.byte	-49
 843 0083 41       		.byte	65
 844 0084 D0       		.byte	-48
 845 0085 0C       		.byte	12
 846 0086 D4       		.byte	-44
 847 0087 18       		.byte	24
 848 0088 D6       		.byte	-42
 849 0089 04       		.byte	4
 850 008a D8       		.byte	-40
 851 008b 04       		.byte	4
 852 008c D9       		.byte	-39
 853 008d 04       		.byte	4
 854 008e DA       		.byte	-38
 855 008f 04       		.byte	4
ARM GAS  C:\Users\JOHNNY~1\AppData\Local\Temp\cc7joSo9.s 			page 27


 856 0090 DB       		.byte	-37
 857 0091 04       		.byte	4
 858 0092 DF       		.byte	-33
 859 0093 01       		.byte	1
 860 0094 E6       		.byte	-26
 861 0095 40       		.byte	64
 862 0096 E7       		.byte	-25
 863 0097 02       		.byte	2
 864 0098 E9       		.byte	-23
 865 0099 10       		.byte	16
 866 009a EA       		.byte	-22
 867 009b 30       		.byte	48
 868 009c EB       		.byte	-21
 869 009d 10       		.byte	16
 870 009e ED       		.byte	-19
 871 009f 10       		.byte	16
 872 00a0 EE       		.byte	-18
 873 00a1 10       		.byte	16
 874 00a2 EF       		.byte	-17
 875 00a3 12       		.byte	18
 876 00a4 04       		.byte	4
 877 00a5 2A       		.byte	42
 878 00a6 0E       		.byte	14
 879 00a7 0A       		.byte	10
 880 00a8 10       		.byte	16
 881 00a9 04       		.byte	4
 882 00aa 13       		.byte	19
 883 00ab 20       		.byte	32
 884 00ac 14       		.byte	20
 885 00ad 08       		.byte	8
 886 00ae 1D       		.byte	29
 887 00af 49       		.byte	73
 888 00b0 1E       		.byte	30
 889 00b1 0A       		.byte	10
 890 00b2 25       		.byte	37
 891 00b3 10       		.byte	16
 892 00b4 27       		.byte	39
 893 00b5 61       		.byte	97
 894 00b6 2C       		.byte	44
 895 00b7 40       		.byte	64
 896 00b8 2F       		.byte	47
 897 00b9 22       		.byte	34
 898 00ba 30       		.byte	48
 899 00bb 01       		.byte	1
 900 00bc 31       		.byte	49
 901 00bd 01       		.byte	1
 902 00be 36       		.byte	54
 903 00bf 2A       		.byte	42
 904 00c0 37       		.byte	55
 905 00c1 40       		.byte	64
 906 00c2 3E       		.byte	62
 907 00c3 01       		.byte	1
 908 00c4 3F       		.byte	63
 909 00c5 80       		.byte	-128
 910 00c6 44       		.byte	68
 911 00c7 01       		.byte	1
 912 00c8 45       		.byte	69
ARM GAS  C:\Users\JOHNNY~1\AppData\Local\Temp\cc7joSo9.s 			page 28


 913 00c9 28       		.byte	40
 914 00ca 46       		.byte	70
 915 00cb 80       		.byte	-128
 916 00cc 47       		.byte	71
 917 00cd 01       		.byte	1
 918 00ce 4E       		.byte	78
 919 00cf 0A       		.byte	10
 920 00d0 57       		.byte	87
 921 00d1 60       		.byte	96
 922 00d2 5C       		.byte	92
 923 00d3 01       		.byte	1
 924 00d4 64       		.byte	100
 925 00d5 04       		.byte	4
 926 00d6 66       		.byte	102
 927 00d7 80       		.byte	-128
 928 00d8 67       		.byte	103
 929 00d9 40       		.byte	64
 930 00da 87       		.byte	-121
 931 00db 40       		.byte	64
 932 00dc C0       		.byte	-64
 933 00dd 70       		.byte	112
 934 00de C2       		.byte	-62
 935 00df C0       		.byte	-64
 936 00e0 C4       		.byte	-60
 937 00e1 40       		.byte	64
 938 00e2 CA       		.byte	-54
 939 00e3 D0       		.byte	-48
 940 00e4 CC       		.byte	-52
 941 00e5 F0       		.byte	-16
 942 00e6 CE       		.byte	-50
 943 00e7 90       		.byte	-112
 944 00e8 D0       		.byte	-48
 945 00e9 70       		.byte	112
 946 00ea D2       		.byte	-46
 947 00eb 30       		.byte	48
 948 00ec D6       		.byte	-42
 949 00ed 80       		.byte	-128
 950 00ee D8       		.byte	-40
 951 00ef B0       		.byte	-80
 952 00f0 01       		.byte	1
 953 00f1 10       		.byte	16
 954 00f2 02       		.byte	2
 955 00f3 23       		.byte	35
 956 00f4 05       		.byte	5
 957 00f5 FF       		.byte	-1
 958 00f6 08       		.byte	8
 959 00f7 04       		.byte	4
 960 00f8 0B       		.byte	11
 961 00f9 04       		.byte	4
 962 00fa 0C       		.byte	12
 963 00fb 03       		.byte	3
 964 00fc 0D       		.byte	13
 965 00fd 80       		.byte	-128
 966 00fe 10       		.byte	16
 967 00ff 33       		.byte	51
 968 0100 12       		.byte	18
 969 0101 0C       		.byte	12
ARM GAS  C:\Users\JOHNNY~1\AppData\Local\Temp\cc7joSo9.s 			page 29


 970 0102 13       		.byte	19
 971 0103 E3       		.byte	-29
 972 0104 14       		.byte	20
 973 0105 0C       		.byte	12
 974 0106 15       		.byte	21
 975 0107 3C       		.byte	60
 976 0108 17       		.byte	23
 977 0109 C2       		.byte	-62
 978 010a 18       		.byte	24
 979 010b 02       		.byte	2
 980 010c 19       		.byte	25
 981 010d 18       		.byte	24
 982 010e 1C       		.byte	28
 983 010f 1F       		.byte	31
 984 0110 1D       		.byte	29
 985 0111 44       		.byte	68
 986 0112 1E       		.byte	30
 987 0113 20       		.byte	32
 988 0114 20       		.byte	32
 989 0115 01       		.byte	1
 990 0116 21       		.byte	33
 991 0117 1C       		.byte	28
 992 0118 23       		.byte	35
 993 0119 E1       		.byte	-31
 994 011a 24       		.byte	36
 995 011b 1C       		.byte	28
 996 011c 25       		.byte	37
 997 011d E7       		.byte	-25
 998 011e 26       		.byte	38
 999 011f 23       		.byte	35
 1000 0120 27       		.byte	39
 1001 0121 18       		.byte	24
 1002 0122 28       		.byte	40
 1003 0123 3F       		.byte	63
 1004 0124 29       		.byte	41
 1005 0125 08       		.byte	8
 1006 0126 2C       		.byte	44
 1007 0127 08       		.byte	8
 1008 0128 2D       		.byte	45
 1009 0129 C0       		.byte	-64
 1010 012a 30       		.byte	48
 1011 012b 0F       		.byte	15
 1012 012c 31       		.byte	49
 1013 012d 38       		.byte	56
 1014 012e 32       		.byte	50
 1015 012f 10       		.byte	16
 1016 0130 34       		.byte	52
 1017 0131 0F       		.byte	15
 1018 0132 35       		.byte	53
 1019 0133 1F       		.byte	31
 1020 0134 36       		.byte	54
 1021 0135 2C       		.byte	44
 1022 0136 37       		.byte	55
 1023 0137 C0       		.byte	-64
 1024 0138 3A       		.byte	58
 1025 0139 A2       		.byte	-94
 1026 013a 3B       		.byte	59
ARM GAS  C:\Users\JOHNNY~1\AppData\Local\Temp\cc7joSo9.s 			page 30


 1027 013b 28       		.byte	40
 1028 013c 3E       		.byte	62
 1029 013d 04       		.byte	4
 1030 013e 56       		.byte	86
 1031 013f 02       		.byte	2
 1032 0140 57       		.byte	87
 1033 0141 11       		.byte	17
 1034 0142 58       		.byte	88
 1035 0143 04       		.byte	4
 1036 0144 59       		.byte	89
 1037 0145 04       		.byte	4
 1038 0146 5B       		.byte	91
 1039 0147 04       		.byte	4
 1040 0148 5F       		.byte	95
 1041 0149 01       		.byte	1
 1042 014a 05       		.byte	5
 1043 014b E1       		.byte	-31
 1044 014c 0C       		.byte	12
 1045 014d 08       		.byte	8
 1046 014e 0D       		.byte	13
 1047 014f 02       		.byte	2
 1048 0150 0E       		.byte	14
 1049 0151 09       		.byte	9
 1050 0152 14       		.byte	20
 1051 0153 40       		.byte	64
 1052 0154 16       		.byte	22
 1053 0155 02       		.byte	2
 1054 0156 17       		.byte	23
 1055 0157 14       		.byte	20
 1056 0158 1D       		.byte	29
 1057 0159 22       		.byte	34
 1058 015a 1E       		.byte	30
 1059 015b 11       		.byte	17
 1060 015c 1F       		.byte	31
 1061 015d 22       		.byte	34
 1062 015e 24       		.byte	36
 1063 015f 01       		.byte	1
 1064 0160 25       		.byte	37
 1065 0161 04       		.byte	4
 1066 0162 26       		.byte	38
 1067 0163 2A       		.byte	42
 1068 0164 27       		.byte	39
 1069 0165 14       		.byte	20
 1070 0166 2D       		.byte	45
 1071 0167 A0       		.byte	-96
 1072 0168 2E       		.byte	46
 1073 0169 01       		.byte	1
 1074 016a 2F       		.byte	47
 1075 016b 20       		.byte	32
 1076 016c 34       		.byte	52
 1077 016d 40       		.byte	64
 1078 016e 35       		.byte	53
 1079 016f 01       		.byte	1
 1080 0170 37       		.byte	55
 1081 0171 24       		.byte	36
 1082 0172 3C       		.byte	60
 1083 0173 40       		.byte	64
ARM GAS  C:\Users\JOHNNY~1\AppData\Local\Temp\cc7joSo9.s 			page 31


 1084 0174 3D       		.byte	61
 1085 0175 28       		.byte	40
 1086 0176 3E       		.byte	62
 1087 0177 02       		.byte	2
 1088 0178 5E       		.byte	94
 1089 0179 10       		.byte	16
 1090 017a 6C       		.byte	108
 1091 017b 15       		.byte	21
 1092 017c 74       		.byte	116
 1093 017d 08       		.byte	8
 1094 017e 75       		.byte	117
 1095 017f 20       		.byte	32
 1096 0180 76       		.byte	118
 1097 0181 02       		.byte	2
 1098 0182 77       		.byte	119
 1099 0183 20       		.byte	32
 1100 0184 90       		.byte	-112
 1101 0185 40       		.byte	64
 1102 0186 94       		.byte	-108
 1103 0187 2B       		.byte	43
 1104 0188 96       		.byte	-106
 1105 0189 01       		.byte	1
 1106 018a 98       		.byte	-104
 1107 018b 40       		.byte	64
 1108 018c 99       		.byte	-103
 1109 018d 41       		.byte	65
 1110 018e A1       		.byte	-95
 1111 018f 10       		.byte	16
 1112 0190 A2       		.byte	-94
 1113 0191 04       		.byte	4
 1114 0192 A5       		.byte	-91
 1115 0193 20       		.byte	32
 1116 0194 A6       		.byte	-90
 1117 0195 2A       		.byte	42
 1118 0196 A7       		.byte	-89
 1119 0197 02       		.byte	2
 1120 0198 B0       		.byte	-80
 1121 0199 48       		.byte	72
 1122 019a B4       		.byte	-76
 1123 019b 40       		.byte	64
 1124 019c B6       		.byte	-74
 1125 019d 04       		.byte	4
 1126 019e C0       		.byte	-64
 1127 019f D0       		.byte	-48
 1128 01a0 C2       		.byte	-62
 1129 01a1 F0       		.byte	-16
 1130 01a2 C4       		.byte	-60
 1131 01a3 F0       		.byte	-16
 1132 01a4 CA       		.byte	-54
 1133 01a5 F0       		.byte	-16
 1134 01a6 CC       		.byte	-52
 1135 01a7 F0       		.byte	-16
 1136 01a8 CE       		.byte	-50
 1137 01a9 F0       		.byte	-16
 1138 01aa D6       		.byte	-42
 1139 01ab 20       		.byte	32
 1140 01ac E8       		.byte	-24
ARM GAS  C:\Users\JOHNNY~1\AppData\Local\Temp\cc7joSo9.s 			page 32


 1141 01ad 80       		.byte	-128
 1142 01ae 01       		.byte	1
 1143 01af 08       		.byte	8
 1144 01b0 86       		.byte	-122
 1145 01b1 40       		.byte	64
 1146 01b2 C0       		.byte	-64
 1147 01b3 10       		.byte	16
 1148 01b4 E6       		.byte	-26
 1149 01b5 40       		.byte	64
 1150 01b6 6E       		.byte	110
 1151 01b7 80       		.byte	-128
 1152 01b8 A2       		.byte	-94
 1153 01b9 40       		.byte	64
 1154 01ba B1       		.byte	-79
 1155 01bb 08       		.byte	8
 1156 01bc DA       		.byte	-38
 1157 01bd 80       		.byte	-128
 1158 01be 01       		.byte	1
 1159 01bf 01       		.byte	1
 1160 01c0 10       		.byte	16
 1161 01c1 01       		.byte	1
 1162 01c2 0000     		.text
 1163              	.Letext0:
 1164              		.file 2 "c:\\program files (x86)\\cypress\\psoc creator\\3.3\\psoc creator\\import\\gnu\\arm\\4.9.
 1165              		.file 3 ".\\Generated_Source\\PSoC4\\cytypes.h"