ARM GAS  C:\Users\JOHNNY~1\AppData\Local\Temp\cc8F5XiI.s 			page 1


   1              		.cpu cortex-m0
   2              		.fpu softvfp
   3              		.eabi_attribute 20, 1
   4              		.eabi_attribute 21, 1
   5              		.eabi_attribute 23, 3
   6              		.eabi_attribute 24, 1
   7              		.eabi_attribute 25, 1
   8              		.eabi_attribute 26, 1
   9              		.eabi_attribute 30, 6
  10              		.eabi_attribute 34, 0
  11              		.eabi_attribute 18, 4
  12              		.code	16
  13              		.file	"debug.c"
  14              		.text
  15              	.Ltext0:
  16              		.cfi_sections	.debug_frame
  17              		.section	.text._write,"ax",%progbits
  18              		.align	2
  19              		.global	_write
  20              		.code	16
  21              		.thumb_func
  22              		.type	_write, %function
  23              	_write:
  24              	.LFB37:
  25              		.file 1 ".\\debug.c"
   1:.\debug.c     **** /*******************************************************************************
   2:.\debug.c     **** * File Name: debug.c
   3:.\debug.c     **** *
   4:.\debug.c     **** * Version 1.0
   5:.\debug.c     **** *
   6:.\debug.c     **** * Description:
   7:.\debug.c     **** *  Common BLE application code for printout debug messages.
   8:.\debug.c     **** *
   9:.\debug.c     **** * Hardware Dependency:
  10:.\debug.c     **** *  CY8CKIT-042 BLE
  11:.\debug.c     **** *
  12:.\debug.c     **** ********************************************************************************
  13:.\debug.c     **** * Copyright 2015, Cypress Semiconductor Corporation.  All rights reserved.
  14:.\debug.c     **** * You may use this file only in accordance with the license, terms, conditions,
  15:.\debug.c     **** * disclaimers, and limitations in the end user license agreement accompanying
  16:.\debug.c     **** * the software package with which this file was provided.
  17:.\debug.c     **** *******************************************************************************/
  18:.\debug.c     **** 
  19:.\debug.c     **** #include "main.h"
  20:.\debug.c     **** 
  21:.\debug.c     **** 
  22:.\debug.c     **** #if (DEBUG_UART_ENABLED == ENABLED)
  23:.\debug.c     **** 
  24:.\debug.c     **** #if defined(__ARMCC_VERSION)
  25:.\debug.c     **** 
  26:.\debug.c     **** /* For MDK/RVDS compiler, revise fputc function for printf functionality */
  27:.\debug.c     **** struct __FILE
  28:.\debug.c     **** {
  29:.\debug.c     ****     int handle;
  30:.\debug.c     **** };
  31:.\debug.c     **** 
  32:.\debug.c     **** enum
ARM GAS  C:\Users\JOHNNY~1\AppData\Local\Temp\cc8F5XiI.s 			page 2


  33:.\debug.c     **** {
  34:.\debug.c     ****     STDIN_HANDLE,
  35:.\debug.c     ****     STDOUT_HANDLE,
  36:.\debug.c     ****     STDERR_HANDLE
  37:.\debug.c     **** };
  38:.\debug.c     **** 
  39:.\debug.c     **** FILE __stdin = {STDIN_HANDLE};
  40:.\debug.c     **** FILE __stdout = {STDOUT_HANDLE};
  41:.\debug.c     **** FILE __stderr = {STDERR_HANDLE};
  42:.\debug.c     **** 
  43:.\debug.c     **** int fputc(int ch, FILE *file)
  44:.\debug.c     **** {
  45:.\debug.c     ****     int ret = EOF;
  46:.\debug.c     **** 
  47:.\debug.c     ****     switch( file->handle )
  48:.\debug.c     ****     {
  49:.\debug.c     ****         case STDOUT_HANDLE:
  50:.\debug.c     ****             UART_DEB_UartPutChar(ch);
  51:.\debug.c     ****             ret = ch ;
  52:.\debug.c     ****             break ;
  53:.\debug.c     **** 
  54:.\debug.c     ****         case STDERR_HANDLE:
  55:.\debug.c     ****             ret = ch ;
  56:.\debug.c     ****             break ;
  57:.\debug.c     **** 
  58:.\debug.c     ****         default:
  59:.\debug.c     ****             file = file;
  60:.\debug.c     ****             break ;
  61:.\debug.c     ****     }
  62:.\debug.c     ****     return ret ;
  63:.\debug.c     **** }
  64:.\debug.c     **** 
  65:.\debug.c     **** #elif defined (__ICCARM__)      /* IAR */
  66:.\debug.c     **** 
  67:.\debug.c     **** /* For IAR compiler, revise __write() function for printf functionality */
  68:.\debug.c     **** size_t __write(int handle, const unsigned char * buffer, size_t size)
  69:.\debug.c     **** {
  70:.\debug.c     ****     size_t nChars = 0;
  71:.\debug.c     **** 
  72:.\debug.c     ****     if (buffer == 0)
  73:.\debug.c     ****     {
  74:.\debug.c     ****         /*
  75:.\debug.c     ****          * This means that we should flush internal buffers.  Since we
  76:.\debug.c     ****          * don't, we just return.  (Remember, "handle" == -1 means that all
  77:.\debug.c     ****          * handles should be flushed.)
  78:.\debug.c     ****          */
  79:.\debug.c     ****         return (0);
  80:.\debug.c     ****     }
  81:.\debug.c     **** 
  82:.\debug.c     ****     for (/* Empty */; size != 0; --size)
  83:.\debug.c     ****     {
  84:.\debug.c     ****         UART_DEB_UartPutChar(*buffer++);
  85:.\debug.c     ****         ++nChars;
  86:.\debug.c     ****     }
  87:.\debug.c     **** 
  88:.\debug.c     ****     return (nChars);
  89:.\debug.c     **** }
ARM GAS  C:\Users\JOHNNY~1\AppData\Local\Temp\cc8F5XiI.s 			page 3


  90:.\debug.c     **** 
  91:.\debug.c     **** #else  /* (__GNUC__)  GCC */
  92:.\debug.c     **** 
  93:.\debug.c     **** /* For GCC compiler, revise _write() function for printf functionality */
  94:.\debug.c     **** int _write(int file, char *ptr, int len)
  95:.\debug.c     **** {
  26              		.loc 1 95 0
  27              		.cfi_startproc
  28 0000 80B5     		push	{r7, lr}
  29              		.cfi_def_cfa_offset 8
  30              		.cfi_offset 7, -8
  31              		.cfi_offset 14, -4
  32 0002 86B0     		sub	sp, sp, #24
  33              		.cfi_def_cfa_offset 32
  34 0004 00AF     		add	r7, sp, #0
  35              		.cfi_def_cfa_register 7
  36 0006 F860     		str	r0, [r7, #12]
  37 0008 B960     		str	r1, [r7, #8]
  38 000a 7A60     		str	r2, [r7, #4]
  96:.\debug.c     ****     int x;
  97:.\debug.c     ****     file = file;
  98:.\debug.c     ****     for (x = 0; x < len; x++)
  39              		.loc 1 98 0
  40 000c 0023     		mov	r3, #0
  41 000e 7B61     		str	r3, [r7, #20]
  42 0010 09E0     		b	.L2
  43              	.L3:
  99:.\debug.c     ****     {
 100:.\debug.c     ****         UART_DBG_UartPutChar(*ptr++);
  44              		.loc 1 100 0 discriminator 3
  45 0012 BB68     		ldr	r3, [r7, #8]
  46 0014 5A1C     		add	r2, r3, #1
  47 0016 BA60     		str	r2, [r7, #8]
  48 0018 1B78     		ldrb	r3, [r3]
  49 001a 181C     		mov	r0, r3
  50 001c FFF7FEFF 		bl	UART_DBG_SpiUartWriteTxData
  98:.\debug.c     ****     {
  51              		.loc 1 98 0 discriminator 3
  52 0020 7B69     		ldr	r3, [r7, #20]
  53 0022 0133     		add	r3, r3, #1
  54 0024 7B61     		str	r3, [r7, #20]
  55              	.L2:
  98:.\debug.c     ****     {
  56              		.loc 1 98 0 is_stmt 0 discriminator 1
  57 0026 7A69     		ldr	r2, [r7, #20]
  58 0028 7B68     		ldr	r3, [r7, #4]
  59 002a 9A42     		cmp	r2, r3
  60 002c F1DB     		blt	.L3
 101:.\debug.c     ****     }
 102:.\debug.c     ****     return len;
  61              		.loc 1 102 0 is_stmt 1
  62 002e 7B68     		ldr	r3, [r7, #4]
 103:.\debug.c     **** }
  63              		.loc 1 103 0
  64 0030 181C     		mov	r0, r3
  65 0032 BD46     		mov	sp, r7
  66 0034 06B0     		add	sp, sp, #24
ARM GAS  C:\Users\JOHNNY~1\AppData\Local\Temp\cc8F5XiI.s 			page 4


  67              		@ sp needed
  68 0036 80BD     		pop	{r7, pc}
  69              		.cfi_endproc
  70              	.LFE37:
  71              		.size	_write, .-_write
  72              		.section	.rodata
  73              		.align	2
  74              	.LC1:
  75 0000 4379426C 		.ascii	"CyBle_GetStackLibraryVersion API Error: \000"
  75      655F4765 
  75      74537461 
  75      636B4C69 
  75      62726172 
  76 0029 000000   		.align	2
  77              	.LC3:
  78 002c 424C4520 		.ascii	"BLE Stack Version: %d.%d.%d.%d\015\012\000"
  78      53746163 
  78      6B205665 
  78      7273696F 
  78      6E3A2025 
  79              		.section	.text.PrintStackVersion,"ax",%progbits
  80              		.align	2
  81              		.global	PrintStackVersion
  82              		.code	16
  83              		.thumb_func
  84              		.type	PrintStackVersion, %function
  85              	PrintStackVersion:
  86              	.LFB38:
 104:.\debug.c     **** 
 105:.\debug.c     **** #endif  /* (__ARMCC_VERSION) */
 106:.\debug.c     **** 
 107:.\debug.c     **** #endif /* DEBUG_UART_ENABLED == ENABLED */
 108:.\debug.c     **** 
 109:.\debug.c     **** 
 110:.\debug.c     **** /*******************************************************************************
 111:.\debug.c     **** * Function Name: PrintStackVersion
 112:.\debug.c     **** ********************************************************************************
 113:.\debug.c     **** *
 114:.\debug.c     **** * Summary:
 115:.\debug.c     **** *   Prints the BLE Stack version if the PRINT_STACK_VERSION is defined.
 116:.\debug.c     **** *
 117:.\debug.c     **** * Parameters:
 118:.\debug.c     **** *   None.
 119:.\debug.c     **** *
 120:.\debug.c     **** * Return:
 121:.\debug.c     **** *   None.
 122:.\debug.c     **** *
 123:.\debug.c     **** *******************************************************************************/
 124:.\debug.c     **** void PrintStackVersion(void)
 125:.\debug.c     **** {
  87              		.loc 1 125 0
  88              		.cfi_startproc
  89 0000 B0B5     		push	{r4, r5, r7, lr}
  90              		.cfi_def_cfa_offset 16
  91              		.cfi_offset 4, -16
  92              		.cfi_offset 5, -12
  93              		.cfi_offset 7, -8
ARM GAS  C:\Users\JOHNNY~1\AppData\Local\Temp\cc8F5XiI.s 			page 5


  94              		.cfi_offset 14, -4
  95 0002 84B0     		sub	sp, sp, #16
  96              		.cfi_def_cfa_offset 32
  97 0004 02AF     		add	r7, sp, #8
  98              		.cfi_def_cfa 7, 24
 126:.\debug.c     ****     CYBLE_STACK_LIB_VERSION_T stackVersion;
 127:.\debug.c     ****     
 128:.\debug.c     ****     apiResult = CyBle_GetStackLibraryVersion(&stackVersion);
  99              		.loc 1 128 0
 100 0006 3B1D     		add	r3, r7, #4
 101 0008 181C     		mov	r0, r3
 102 000a FFF7FEFF 		bl	CyBle_GetStackLibraryVersion
 103 000e 031C     		mov	r3, r0
 104 0010 1A1C     		mov	r2, r3
 105 0012 114B     		ldr	r3, .L8
 106 0014 1A80     		strh	r2, [r3]
 129:.\debug.c     ****     if(apiResult != CYBLE_ERROR_OK)
 107              		.loc 1 129 0
 108 0016 104B     		ldr	r3, .L8
 109 0018 1B88     		ldrh	r3, [r3]
 110 001a 002B     		cmp	r3, #0
 111 001c 06D0     		beq	.L6
 130:.\debug.c     ****     {
 131:.\debug.c     ****         DBG_PRINTF("CyBle_GetStackLibraryVersion API Error: ");
 112              		.loc 1 131 0
 113 001e 0F4B     		ldr	r3, .L8+4
 114 0020 181C     		mov	r0, r3
 115 0022 FFF7FEFF 		bl	printf
 132:.\debug.c     ****         PrintApiResult();
 116              		.loc 1 132 0
 117 0026 FFF7FEFF 		bl	PrintApiResult
 118 002a 12E0     		b	.L5
 119              	.L6:
 133:.\debug.c     ****     }
 134:.\debug.c     ****     else
 135:.\debug.c     ****     {
 136:.\debug.c     ****         DBG_PRINTF("BLE Stack Version: %d.%d.%d.%d\r\n", stackVersion.majorVersion, 
 120              		.loc 1 136 0
 121 002c 3B1D     		add	r3, r7, #4
 122 002e 1B78     		ldrb	r3, [r3]
 123 0030 191C     		mov	r1, r3
 124 0032 3B1D     		add	r3, r7, #4
 125 0034 5B78     		ldrb	r3, [r3, #1]
 126 0036 1D1C     		mov	r5, r3
 127 0038 3B1D     		add	r3, r7, #4
 128 003a 9B78     		ldrb	r3, [r3, #2]
 129 003c 1C1C     		mov	r4, r3
 130 003e 3B1D     		add	r3, r7, #4
 131 0040 DB78     		ldrb	r3, [r3, #3]
 132 0042 1A1C     		mov	r2, r3
 133 0044 064B     		ldr	r3, .L8+8
 134 0046 0092     		str	r2, [sp]
 135 0048 181C     		mov	r0, r3
 136 004a 2A1C     		mov	r2, r5
 137 004c 231C     		mov	r3, r4
 138 004e FFF7FEFF 		bl	printf
 139              	.L5:
ARM GAS  C:\Users\JOHNNY~1\AppData\Local\Temp\cc8F5XiI.s 			page 6


 137:.\debug.c     ****                                                          stackVersion.minorVersion,
 138:.\debug.c     ****                                                          stackVersion.patch,
 139:.\debug.c     ****                                                          stackVersion.buildNumber);
 140:.\debug.c     ****     }
 141:.\debug.c     **** }
 140              		.loc 1 141 0
 141 0052 BD46     		mov	sp, r7
 142 0054 02B0     		add	sp, sp, #8
 143              		@ sp needed
 144 0056 B0BD     		pop	{r4, r5, r7, pc}
 145              	.L9:
 146              		.align	2
 147              	.L8:
 148 0058 00000000 		.word	apiResult
 149 005c 00000000 		.word	.LC1
 150 0060 2C000000 		.word	.LC3
 151              		.cfi_endproc
 152              	.LFE38:
 153              		.size	PrintStackVersion, .-PrintStackVersion
 154              		.section	.rodata
 155 004d 000000   		.align	2
 156              	.LC5:
 157 0050 73746174 		.ascii	"state: \000"
 157      653A2000 
 158              		.align	2
 159              	.LC9:
 160 0058 73746F70 		.ascii	"stopped\015\000"
 160      7065640D 
 160      00
 161 0061 000000   		.align	2
 162              	.LC11:
 163 0064 696E6974 		.ascii	"initializing\015\000"
 163      69616C69 
 163      7A696E67 
 163      0D00
 164 0072 0000     		.align	2
 165              	.LC13:
 166 0074 636F6E6E 		.ascii	"connected\015\000"
 166      65637465 
 166      640D00
 167 007f 00       		.align	2
 168              	.LC15:
 169 0080 64697363 		.ascii	"disconnected\015\000"
 169      6F6E6E65 
 169      63746564 
 169      0D00
 170 008e 0000     		.align	2
 171              	.LC17:
 172 0090 61647665 		.ascii	"advertising\015\000"
 172      72746973 
 172      696E670D 
 172      00
 173 009d 000000   		.align	2
 174              	.LC19:
 175 00a0 756E6B6E 		.ascii	"unknown\015\000"
 175      6F776E0D 
 175      00
ARM GAS  C:\Users\JOHNNY~1\AppData\Local\Temp\cc8F5XiI.s 			page 7


 176              		.section	.text.PrintState,"ax",%progbits
 177              		.align	2
 178              		.global	PrintState
 179              		.code	16
 180              		.thumb_func
 181              		.type	PrintState, %function
 182              	PrintState:
 183              	.LFB39:
 142:.\debug.c     **** 
 143:.\debug.c     **** /*******************************************************************************
 144:.\debug.c     **** * Function Name: PrintState
 145:.\debug.c     **** ********************************************************************************
 146:.\debug.c     **** *
 147:.\debug.c     **** * Summary:
 148:.\debug.c     **** *   Decodes and prints the cyBle_state global variable value.
 149:.\debug.c     **** *
 150:.\debug.c     **** * Parameters:
 151:.\debug.c     **** *   None.
 152:.\debug.c     **** *
 153:.\debug.c     **** * Return:
 154:.\debug.c     **** *   None.
 155:.\debug.c     **** *
 156:.\debug.c     **** *******************************************************************************/
 157:.\debug.c     **** void PrintState(void)
 158:.\debug.c     **** {
 184              		.loc 1 158 0
 185              		.cfi_startproc
 186 0000 80B5     		push	{r7, lr}
 187              		.cfi_def_cfa_offset 8
 188              		.cfi_offset 7, -8
 189              		.cfi_offset 14, -4
 190 0002 00AF     		add	r7, sp, #0
 191              		.cfi_def_cfa_register 7
 159:.\debug.c     ****     DBG_PRINTF("state: ");
 192              		.loc 1 159 0
 193 0004 164B     		ldr	r3, .L19
 194 0006 181C     		mov	r0, r3
 195 0008 FFF7FEFF 		bl	printf
 160:.\debug.c     ****     switch(CyBle_GetState())
 196              		.loc 1 160 0
 197 000c 154B     		ldr	r3, .L19+4
 198 000e 1B78     		ldrb	r3, [r3]
 199 0010 042B     		cmp	r3, #4
 200 0012 1DD8     		bhi	.L11
 201 0014 9A00     		lsl	r2, r3, #2
 202 0016 144B     		ldr	r3, .L19+8
 203 0018 D318     		add	r3, r2, r3
 204 001a 1B68     		ldr	r3, [r3]
 205 001c 9F46     		mov	pc, r3
 206              		.section	.rodata
 207 00a9 000000   		.align	2
 208              	.L13:
 209 00ac 1E000000 		.word	.L12
 210 00b0 28000000 		.word	.L14
 211 00b4 32000000 		.word	.L15
 212 00b8 46000000 		.word	.L16
 213 00bc 3C000000 		.word	.L17
ARM GAS  C:\Users\JOHNNY~1\AppData\Local\Temp\cc8F5XiI.s 			page 8


 214              		.section	.text.PrintState
 215              	.L12:
 161:.\debug.c     ****     {
 162:.\debug.c     ****         case CYBLE_STATE_STOPPED:
 163:.\debug.c     ****             DBG_PRINTF("stopped\r\n");
 216              		.loc 1 163 0
 217 001e 134B     		ldr	r3, .L19+12
 218 0020 181C     		mov	r0, r3
 219 0022 FFF7FEFF 		bl	puts
 164:.\debug.c     ****             break;
 220              		.loc 1 164 0
 221 0026 18E0     		b	.L10
 222              	.L14:
 165:.\debug.c     ****             
 166:.\debug.c     ****         case CYBLE_STATE_INITIALIZING:
 167:.\debug.c     ****             DBG_PRINTF("initializing\r\n");
 223              		.loc 1 167 0
 224 0028 114B     		ldr	r3, .L19+16
 225 002a 181C     		mov	r0, r3
 226 002c FFF7FEFF 		bl	puts
 168:.\debug.c     ****             break;
 227              		.loc 1 168 0
 228 0030 13E0     		b	.L10
 229              	.L15:
 169:.\debug.c     ****             
 170:.\debug.c     ****         case CYBLE_STATE_CONNECTED:
 171:.\debug.c     ****             DBG_PRINTF("connected\r\n");
 230              		.loc 1 171 0
 231 0032 104B     		ldr	r3, .L19+20
 232 0034 181C     		mov	r0, r3
 233 0036 FFF7FEFF 		bl	puts
 172:.\debug.c     ****             break;
 234              		.loc 1 172 0
 235 003a 0EE0     		b	.L10
 236              	.L17:
 173:.\debug.c     ****             
 174:.\debug.c     ****         case CYBLE_STATE_DISCONNECTED:
 175:.\debug.c     ****             DBG_PRINTF("disconnected\r\n");
 237              		.loc 1 175 0
 238 003c 0E4B     		ldr	r3, .L19+24
 239 003e 181C     		mov	r0, r3
 240 0040 FFF7FEFF 		bl	puts
 176:.\debug.c     ****             break;
 241              		.loc 1 176 0
 242 0044 09E0     		b	.L10
 243              	.L16:
 177:.\debug.c     ****             
 178:.\debug.c     ****         case CYBLE_STATE_ADVERTISING:
 179:.\debug.c     ****             DBG_PRINTF("advertising\r\n");
 244              		.loc 1 179 0
 245 0046 0D4B     		ldr	r3, .L19+28
 246 0048 181C     		mov	r0, r3
 247 004a FFF7FEFF 		bl	puts
 180:.\debug.c     ****             break;
 248              		.loc 1 180 0
 249 004e 04E0     		b	.L10
 250              	.L11:
ARM GAS  C:\Users\JOHNNY~1\AppData\Local\Temp\cc8F5XiI.s 			page 9


 181:.\debug.c     **** 
 182:.\debug.c     ****         default:
 183:.\debug.c     ****             DBG_PRINTF("unknown\r\n");
 251              		.loc 1 183 0
 252 0050 0B4B     		ldr	r3, .L19+32
 253 0052 181C     		mov	r0, r3
 254 0054 FFF7FEFF 		bl	puts
 184:.\debug.c     ****             break;
 255              		.loc 1 184 0
 256 0058 C046     		mov	r8, r8
 257              	.L10:
 185:.\debug.c     ****     }
 186:.\debug.c     **** }
 258              		.loc 1 186 0
 259 005a BD46     		mov	sp, r7
 260              		@ sp needed
 261 005c 80BD     		pop	{r7, pc}
 262              	.L20:
 263 005e C046     		.align	2
 264              	.L19:
 265 0060 50000000 		.word	.LC5
 266 0064 00000000 		.word	cyBle_state
 267 0068 AC000000 		.word	.L13
 268 006c 58000000 		.word	.LC9
 269 0070 64000000 		.word	.LC11
 270 0074 74000000 		.word	.LC13
 271 0078 80000000 		.word	.LC15
 272 007c 90000000 		.word	.LC17
 273 0080 A0000000 		.word	.LC19
 274              		.cfi_endproc
 275              	.LFE39:
 276              		.size	PrintState, .-PrintState
 277              		.section	.rodata
 278              		.align	2
 279              	.LC22:
 280 00c0 30782532 		.ascii	"0x%2.2x \000"
 280      2E327820 
 280      00
 281 00c9 000000   		.align	2
 282              	.LC24:
 283 00cc 6F6B0D00 		.ascii	"ok\015\000"
 284              		.align	2
 285              	.LC26:
 286 00d0 696E7661 		.ascii	"invalid parameter\015\000"
 286      6C696420 
 286      70617261 
 286      6D657465 
 286      720D00
 287 00e3 00       		.align	2
 288              	.LC28:
 289 00e4 696E7661 		.ascii	"invalid operation\015\000"
 289      6C696420 
 289      6F706572 
 289      6174696F 
 289      6E0D00
 290 00f7 00       		.align	2
 291              	.LC30:
ARM GAS  C:\Users\JOHNNY~1\AppData\Local\Temp\cc8F5XiI.s 			page 10


 292 00f8 6E6F2064 		.ascii	"no device entity\015\000"
 292      65766963 
 292      6520656E 
 292      74697479 
 292      0D00
 293 010a 0000     		.align	2
 294              	.LC32:
 295 010c 6E6F7469 		.ascii	"notification is disabled\015\000"
 295      66696361 
 295      74696F6E 
 295      20697320 
 295      64697361 
 296 0126 0000     		.align	2
 297              	.LC34:
 298 0128 696E6469 		.ascii	"indication is disabled\015\000"
 298      63617469 
 298      6F6E2069 
 298      73206469 
 298      7361626C 
 299              		.align	2
 300              	.LC36:
 301 0140 63686172 		.ascii	"characteristic is not discovered\015\000"
 301      61637465 
 301      72697374 
 301      69632069 
 301      73206E6F 
 302 0162 0000     		.align	2
 303              	.LC38:
 304 0164 696E7661 		.ascii	"invalid state: \000"
 304      6C696420 
 304      73746174 
 304      653A2000 
 305              		.align	2
 306              	.LC40:
 307 0174 696E7661 		.ascii	"invalid attribute handle\015\000"
 307      6C696420 
 307      61747472 
 307      69627574 
 307      65206861 
 308 018e 0000     		.align	2
 309              	.LC42:
 310 0190 666C6173 		.ascii	"flash write not permitted\015\000"
 310      68207772 
 310      69746520 
 310      6E6F7420 
 310      7065726D 
 311 01ab 00       		.align	2
 312              	.LC44:
 313 01ac 6F746865 		.ascii	"other api result\015\000"
 313      72206170 
 313      69207265 
 313      73756C74 
 313      0D00
 314 01be 0000     		.section	.text.PrintApiResult,"ax",%progbits
 315              		.align	2
 316              		.global	PrintApiResult
 317              		.code	16
ARM GAS  C:\Users\JOHNNY~1\AppData\Local\Temp\cc8F5XiI.s 			page 11


 318              		.thumb_func
 319              		.type	PrintApiResult, %function
 320              	PrintApiResult:
 321              	.LFB40:
 187:.\debug.c     **** 
 188:.\debug.c     **** 
 189:.\debug.c     **** /*******************************************************************************
 190:.\debug.c     **** * Function Name: PrintApiResult
 191:.\debug.c     **** ********************************************************************************
 192:.\debug.c     **** *
 193:.\debug.c     **** * Summary:
 194:.\debug.c     **** *   Decodes and prints the apiResult global variable value.
 195:.\debug.c     **** *
 196:.\debug.c     **** * Parameters:
 197:.\debug.c     **** *   None.
 198:.\debug.c     **** *
 199:.\debug.c     **** * Return:
 200:.\debug.c     **** *   None.
 201:.\debug.c     **** *
 202:.\debug.c     **** *******************************************************************************/
 203:.\debug.c     **** void PrintApiResult(void)
 204:.\debug.c     **** {
 322              		.loc 1 204 0
 323              		.cfi_startproc
 324 0000 80B5     		push	{r7, lr}
 325              		.cfi_def_cfa_offset 8
 326              		.cfi_offset 7, -8
 327              		.cfi_offset 14, -4
 328 0002 00AF     		add	r7, sp, #0
 329              		.cfi_def_cfa_register 7
 205:.\debug.c     ****     DBG_PRINTF("0x%2.2x ", apiResult);
 330              		.loc 1 205 0
 331 0004 354B     		ldr	r3, .L37
 332 0006 1B88     		ldrh	r3, [r3]
 333 0008 1A1C     		mov	r2, r3
 334 000a 354B     		ldr	r3, .L37+4
 335 000c 181C     		mov	r0, r3
 336 000e 111C     		mov	r1, r2
 337 0010 FFF7FEFF 		bl	printf
 206:.\debug.c     ****     
 207:.\debug.c     ****     switch(apiResult)
 338              		.loc 1 207 0
 339 0014 314B     		ldr	r3, .L37
 340 0016 1B88     		ldrh	r3, [r3]
 341 0018 132B     		cmp	r3, #19
 342 001a 4DD0     		beq	.L23
 343 001c 0ADC     		bgt	.L24
 344 001e 012B     		cmp	r3, #1
 345 0020 25D0     		beq	.L25
 346 0022 02DC     		bgt	.L26
 347 0024 002B     		cmp	r3, #0
 348 0026 1DD0     		beq	.L27
 349 0028 50E0     		b	.L22
 350              	.L26:
 351 002a 022B     		cmp	r3, #2
 352 002c 24D0     		beq	.L28
 353 002e 072B     		cmp	r3, #7
ARM GAS  C:\Users\JOHNNY~1\AppData\Local\Temp\cc8F5XiI.s 			page 12


 354 0030 27D0     		beq	.L29
 355 0032 4BE0     		b	.L22
 356              	.L24:
 357 0034 0222     		mov	r2, #2
 358 0036 FF32     		add	r2, r2, #255
 359 0038 9342     		cmp	r3, r2
 360 003a 2CD0     		beq	.L30
 361 003c 0222     		mov	r2, #2
 362 003e FF32     		add	r2, r2, #255
 363 0040 9342     		cmp	r3, r2
 364 0042 06DC     		bgt	.L31
 365 0044 282B     		cmp	r3, #40
 366 0046 3CD0     		beq	.L32
 367 0048 8022     		mov	r2, #128
 368 004a 5200     		lsl	r2, r2, #1
 369 004c 9342     		cmp	r3, r2
 370 004e 1DD0     		beq	.L33
 371 0050 3CE0     		b	.L22
 372              	.L31:
 373 0052 8122     		mov	r2, #129
 374 0054 5200     		lsl	r2, r2, #1
 375 0056 9342     		cmp	r3, r2
 376 0058 22D0     		beq	.L34
 377 005a 0422     		mov	r2, #4
 378 005c FF32     		add	r2, r2, #255
 379 005e 9342     		cmp	r3, r2
 380 0060 23D0     		beq	.L35
 381 0062 33E0     		b	.L22
 382              	.L27:
 208:.\debug.c     ****     {
 209:.\debug.c     ****         case CYBLE_ERROR_OK:
 210:.\debug.c     ****             DBG_PRINTF("ok\r\n");
 383              		.loc 1 210 0
 384 0064 1F4B     		ldr	r3, .L37+8
 385 0066 181C     		mov	r0, r3
 386 0068 FFF7FEFF 		bl	puts
 211:.\debug.c     ****             break;
 387              		.loc 1 211 0
 388 006c 33E0     		b	.L21
 389              	.L25:
 212:.\debug.c     ****             
 213:.\debug.c     ****         case CYBLE_ERROR_INVALID_PARAMETER:
 214:.\debug.c     ****             DBG_PRINTF("invalid parameter\r\n");
 390              		.loc 1 214 0
 391 006e 1E4B     		ldr	r3, .L37+12
 392 0070 181C     		mov	r0, r3
 393 0072 FFF7FEFF 		bl	puts
 215:.\debug.c     ****             break;
 394              		.loc 1 215 0
 395 0076 2EE0     		b	.L21
 396              	.L28:
 216:.\debug.c     ****             
 217:.\debug.c     ****         case CYBLE_ERROR_INVALID_OPERATION:
 218:.\debug.c     ****             DBG_PRINTF("invalid operation\r\n");
 397              		.loc 1 218 0
 398 0078 1C4B     		ldr	r3, .L37+16
 399 007a 181C     		mov	r0, r3
ARM GAS  C:\Users\JOHNNY~1\AppData\Local\Temp\cc8F5XiI.s 			page 13


 400 007c FFF7FEFF 		bl	puts
 219:.\debug.c     ****             break;
 401              		.loc 1 219 0
 402 0080 29E0     		b	.L21
 403              	.L29:
 220:.\debug.c     ****             
 221:.\debug.c     ****         case CYBLE_ERROR_NO_DEVICE_ENTITY:
 222:.\debug.c     ****             DBG_PRINTF("no device entity\r\n");
 404              		.loc 1 222 0
 405 0082 1B4B     		ldr	r3, .L37+20
 406 0084 181C     		mov	r0, r3
 407 0086 FFF7FEFF 		bl	puts
 223:.\debug.c     ****             break;
 408              		.loc 1 223 0
 409 008a 24E0     		b	.L21
 410              	.L33:
 224:.\debug.c     ****             
 225:.\debug.c     ****         case CYBLE_ERROR_NTF_DISABLED:
 226:.\debug.c     ****             DBG_PRINTF("notification is disabled\r\n");
 411              		.loc 1 226 0
 412 008c 194B     		ldr	r3, .L37+24
 413 008e 181C     		mov	r0, r3
 414 0090 FFF7FEFF 		bl	puts
 227:.\debug.c     ****             break;
 415              		.loc 1 227 0
 416 0094 1FE0     		b	.L21
 417              	.L30:
 228:.\debug.c     ****             
 229:.\debug.c     ****         case CYBLE_ERROR_IND_DISABLED:
 230:.\debug.c     ****             DBG_PRINTF("indication is disabled\r\n");
 418              		.loc 1 230 0
 419 0096 184B     		ldr	r3, .L37+28
 420 0098 181C     		mov	r0, r3
 421 009a FFF7FEFF 		bl	puts
 231:.\debug.c     ****             break;
 422              		.loc 1 231 0
 423 009e 1AE0     		b	.L21
 424              	.L34:
 232:.\debug.c     ****             
 233:.\debug.c     ****         case CYBLE_ERROR_CHAR_IS_NOT_DISCOVERED:
 234:.\debug.c     ****             DBG_PRINTF("characteristic is not discovered\r\n");
 425              		.loc 1 234 0
 426 00a0 164B     		ldr	r3, .L37+32
 427 00a2 181C     		mov	r0, r3
 428 00a4 FFF7FEFF 		bl	puts
 235:.\debug.c     ****             break;
 429              		.loc 1 235 0
 430 00a8 15E0     		b	.L21
 431              	.L35:
 236:.\debug.c     ****             
 237:.\debug.c     ****         case CYBLE_ERROR_INVALID_STATE:
 238:.\debug.c     ****             DBG_PRINTF("invalid state: ");
 432              		.loc 1 238 0
 433 00aa 154B     		ldr	r3, .L37+36
 434 00ac 181C     		mov	r0, r3
 435 00ae FFF7FEFF 		bl	printf
 239:.\debug.c     ****             PrintState();
ARM GAS  C:\Users\JOHNNY~1\AppData\Local\Temp\cc8F5XiI.s 			page 14


 436              		.loc 1 239 0
 437 00b2 FFF7FEFF 		bl	PrintState
 240:.\debug.c     ****             break;
 438              		.loc 1 240 0
 439 00b6 0EE0     		b	.L21
 440              	.L23:
 241:.\debug.c     ****             
 242:.\debug.c     ****         case CYBLE_ERROR_GATT_DB_INVALID_ATTR_HANDLE:
 243:.\debug.c     ****             DBG_PRINTF("invalid attribute handle\r\n");
 441              		.loc 1 243 0
 442 00b8 124B     		ldr	r3, .L37+40
 443 00ba 181C     		mov	r0, r3
 444 00bc FFF7FEFF 		bl	puts
 244:.\debug.c     ****             break;
 445              		.loc 1 244 0
 446 00c0 09E0     		b	.L21
 447              	.L32:
 245:.\debug.c     ****             
 246:.\debug.c     ****         case CYBLE_ERROR_FLASH_WRITE_NOT_PERMITED:
 247:.\debug.c     ****             DBG_PRINTF("flash write not permitted\r\n");
 448              		.loc 1 247 0
 449 00c2 114B     		ldr	r3, .L37+44
 450 00c4 181C     		mov	r0, r3
 451 00c6 FFF7FEFF 		bl	puts
 248:.\debug.c     ****             break;
 452              		.loc 1 248 0
 453 00ca 04E0     		b	.L21
 454              	.L22:
 249:.\debug.c     ****             
 250:.\debug.c     ****         default:
 251:.\debug.c     ****             DBG_PRINTF("other api result\r\n");
 455              		.loc 1 251 0
 456 00cc 0F4B     		ldr	r3, .L37+48
 457 00ce 181C     		mov	r0, r3
 458 00d0 FFF7FEFF 		bl	puts
 252:.\debug.c     ****             break;
 459              		.loc 1 252 0
 460 00d4 C046     		mov	r8, r8
 461              	.L21:
 253:.\debug.c     ****     }
 254:.\debug.c     **** }
 462              		.loc 1 254 0
 463 00d6 BD46     		mov	sp, r7
 464              		@ sp needed
 465 00d8 80BD     		pop	{r7, pc}
 466              	.L38:
 467 00da C046     		.align	2
 468              	.L37:
 469 00dc 00000000 		.word	apiResult
 470 00e0 C0000000 		.word	.LC22
 471 00e4 CC000000 		.word	.LC24
 472 00e8 D0000000 		.word	.LC26
 473 00ec E4000000 		.word	.LC28
 474 00f0 F8000000 		.word	.LC30
 475 00f4 0C010000 		.word	.LC32
 476 00f8 28010000 		.word	.LC34
 477 00fc 40010000 		.word	.LC36
ARM GAS  C:\Users\JOHNNY~1\AppData\Local\Temp\cc8F5XiI.s 			page 15


 478 0100 64010000 		.word	.LC38
 479 0104 74010000 		.word	.LC40
 480 0108 90010000 		.word	.LC42
 481 010c AC010000 		.word	.LC44
 482              		.cfi_endproc
 483              	.LFE40:
 484              		.size	PrintApiResult, .-PrintApiResult
 485              		.text
 486              	.Letext0:
 487              		.file 2 "Generated_Source\\PSoC4/cytypes.h"
 488              		.file 3 "Generated_Source\\PSoC4/BLE_Stack.h"
 489              		.file 4 "Generated_Source\\PSoC4/BLE_eventHandler.h"
 490              		.file 5 ".\\main.h"