ARM GAS  C:\Users\JOHNNY~1\AppData\Local\Temp\cckCyZSb.s 			page 1


   1              		.cpu cortex-m0
   2              		.fpu softvfp
   3              		.eabi_attribute 20, 1
   4              		.eabi_attribute 21, 1
   5              		.eabi_attribute 23, 3
   6              		.eabi_attribute 24, 1
   7              		.eabi_attribute 25, 1
   8              		.eabi_attribute 26, 1
   9              		.eabi_attribute 30, 6
  10              		.eabi_attribute 34, 0
  11              		.eabi_attribute 18, 4
  12              		.code	16
  13              		.file	"Temperature.c"
  14              		.text
  15              	.Ltext0:
  16              		.cfi_sections	.debug_frame
  17              		.bss
  18              		.align	1
  19              	measuredTempratureCelsius:
  20 0000 0000     		.space	2
  21              		.section	.text.MeasureTemperature,"ax",%progbits
  22              		.align	2
  23              		.global	MeasureTemperature
  24              		.code	16
  25              		.thumb_func
  26              		.type	MeasureTemperature, %function
  27              	MeasureTemperature:
  28              	.LFB37:
  29              		.file 1 ".\\Temperature.c"
   1:.\Temperature.c **** /******************************************************************************
   2:.\Temperature.c **** * Project Name      : PSoC_4_BLE_Eddystone
   3:.\Temperature.c **** * File Name         : Temperature.c
   4:.\Temperature.c **** * Version           : 1.0
   5:.\Temperature.c **** * Device Used       : CY8C4247LQI-BL483
   6:.\Temperature.c **** * Software Used     : PSoC Creator 3.3 SP1
   7:.\Temperature.c **** * Compiler          : ARM GCC 4.9.3, ARM MDK Generic
   8:.\Temperature.c **** * Related Hardware  : CY8CKIT-042-BLE Bluetooth Low Energy Pioneer Kit
   9:.\Temperature.c **** * Owner             : DEJO
  10:.\Temperature.c **** *
  11:.\Temperature.c **** ********************************************************************************
  12:.\Temperature.c **** * Copyright (2016), Cypress Semiconductor Corporation. All Rights Reserved.
  13:.\Temperature.c **** ********************************************************************************
  14:.\Temperature.c **** * This software is owned by Cypress Semiconductor Corporation (Cypress)
  15:.\Temperature.c **** * and is protected by and subject to worldwide patent protection (United
  16:.\Temperature.c **** * States and foreign), United States copyright laws and international treaty
  17:.\Temperature.c **** * provisions. Cypress hereby grants to licensee a personal, non-exclusive,
  18:.\Temperature.c **** * non-transferable license to copy, use, modify, create derivative works of,
  19:.\Temperature.c **** * and compile the Cypress Source Code and derivative works for the sole
  20:.\Temperature.c **** * purpose of creating custom software in support of licensee product to be
  21:.\Temperature.c **** * used only in conjunction with a Cypress integrated circuit as specified in
  22:.\Temperature.c **** * the applicable agreement. Any reproduction, modification, translation,
  23:.\Temperature.c **** * compilation, or representation of this software except as specified above
  24:.\Temperature.c **** * is prohibited without the express written permission of Cypress.
  25:.\Temperature.c **** *
  26:.\Temperature.c **** * Disclaimer: CYPRESS MAKES NO WARRANTY OF ANY KIND, EXPRESS OR IMPLIED, WITH
  27:.\Temperature.c **** * REGARD TO THIS MATERIAL, INCLUDING, BUT NOT LIMITED TO, THE IMPLIED
  28:.\Temperature.c **** * WARRANTIES OF MERCHANTABILITY AND FITNESS FOR A PARTICULAR PURPOSE.
ARM GAS  C:\Users\JOHNNY~1\AppData\Local\Temp\cckCyZSb.s 			page 2


  29:.\Temperature.c **** * Cypress reserves the right to make changes without further notice to the
  30:.\Temperature.c **** * materials described herein. Cypress does not assume any liability arising out
  31:.\Temperature.c **** * of the application or use of any product or circuit described herein. Cypress
  32:.\Temperature.c **** * does not authorize its products for use as critical components in life-support
  33:.\Temperature.c **** * systems where a malfunction or failure may reasonably be expected to result in
  34:.\Temperature.c **** * significant injury to the user. The inclusion of Cypress' product in a life-
  35:.\Temperature.c **** * support systems application implies that the manufacturer assumes all risk of
  36:.\Temperature.c **** * such use and in doing so indemnifies Cypress against all charges.
  37:.\Temperature.c **** *
  38:.\Temperature.c **** * Use of this Software may be limited by and subject to the applicable Cypress
  39:.\Temperature.c **** * software license agreement.
  40:.\Temperature.c **** *******************************************************************************/
  41:.\Temperature.c **** #include "main.h"
  42:.\Temperature.c **** #include "Temperature.h"
  43:.\Temperature.c **** 
  44:.\Temperature.c **** /* Stores measured temperature in celsius */
  45:.\Temperature.c **** static uint16 measuredTempratureCelsius;
  46:.\Temperature.c **** 
  47:.\Temperature.c **** /*******************************************************************************
  48:.\Temperature.c **** * Function Name: MeasureTemperature
  49:.\Temperature.c **** ********************************************************************************
  50:.\Temperature.c **** *
  51:.\Temperature.c **** * Summary:
  52:.\Temperature.c **** *   This function measures the die temperature and stores it.
  53:.\Temperature.c **** *
  54:.\Temperature.c **** * Parameters:
  55:.\Temperature.c **** *  None
  56:.\Temperature.c **** *
  57:.\Temperature.c **** * Return:
  58:.\Temperature.c **** *  None
  59:.\Temperature.c **** *
  60:.\Temperature.c **** *******************************************************************************/
  61:.\Temperature.c **** void MeasureTemperature(void)
  62:.\Temperature.c **** {
  30              		.loc 1 62 0
  31              		.cfi_startproc
  32 0000 80B5     		push	{r7, lr}
  33              		.cfi_def_cfa_offset 8
  34              		.cfi_offset 7, -8
  35              		.cfi_offset 14, -4
  36 0002 82B0     		sub	sp, sp, #8
  37              		.cfi_def_cfa_offset 16
  38 0004 00AF     		add	r7, sp, #0
  39              		.cfi_def_cfa_register 7
  63:.\Temperature.c ****     int32 ADCCountsCorrected;
  64:.\Temperature.c **** 
  65:.\Temperature.c ****     /* Wakeup ADC from sleep for measurements. */
  66:.\Temperature.c ****     ADC_Wakeup();
  40              		.loc 1 66 0
  41 0006 FFF7FEFF 		bl	ADC_Wakeup
  67:.\Temperature.c **** 
  68:.\Temperature.c ****     /* Enables injection channel and performs a measurement. */
  69:.\Temperature.c ****     ADC_StartConvert();
  42              		.loc 1 69 0
  43 000a FFF7FEFF 		bl	ADC_StartConvert
  70:.\Temperature.c ****     ADC_IsEndConversion(ADC_WAIT_FOR_RESULT);
  44              		.loc 1 70 0
ARM GAS  C:\Users\JOHNNY~1\AppData\Local\Temp\cckCyZSb.s 			page 3


  45 000e 0220     		mov	r0, #2
  46 0010 FFF7FEFF 		bl	ADC_IsEndConversion
  71:.\Temperature.c **** 
  72:.\Temperature.c ****     /* Read result and adjust data from ADC with respect to Vref value. */
  73:.\Temperature.c ****     ADCCountsCorrected = ADC_DEFAULT_VREF_MV_VALUE *
  74:.\Temperature.c ****                          ADC_GetResult16(ADC_TEMPERATURE_CHANNEL) /
  47              		.loc 1 74 0
  48 0014 0120     		mov	r0, #1
  49 0016 FFF7FEFF 		bl	ADC_GetResult16
  50 001a 031C     		mov	r3, r0
  73:.\Temperature.c ****                          ADC_GetResult16(ADC_TEMPERATURE_CHANNEL) /
  51              		.loc 1 73 0
  52 001c 9B02     		lsl	r3, r3, #10
  53              		.loc 1 74 0
  54 001e 9B0A     		lsr	r3, r3, #10
  73:.\Temperature.c ****                          ADC_GetResult16(ADC_TEMPERATURE_CHANNEL) /
  55              		.loc 1 73 0
  56 0020 7B60     		str	r3, [r7, #4]
  75:.\Temperature.c ****                          ADC_DEF_TEMP_REF;
  76:.\Temperature.c **** 
  77:.\Temperature.c ****     /* Convert the ADC output to degrees Celsius. */
  78:.\Temperature.c ****     measuredTempratureCelsius =
  79:.\Temperature.c ****                 (uint16)(DieTemp_CountsTo_Celsius(ADCCountsCorrected) * 256);
  57              		.loc 1 79 0
  58 0022 7B68     		ldr	r3, [r7, #4]
  59 0024 181C     		mov	r0, r3
  60 0026 FFF7FEFF 		bl	DieTemp_CountsTo_Celsius
  61 002a 031C     		mov	r3, r0
  62 002c 9BB2     		uxth	r3, r3
  63 002e 1B02     		lsl	r3, r3, #8
  64 0030 9AB2     		uxth	r2, r3
  78:.\Temperature.c ****                 (uint16)(DieTemp_CountsTo_Celsius(ADCCountsCorrected) * 256);
  65              		.loc 1 78 0
  66 0032 034B     		ldr	r3, .L2
  67 0034 1A80     		strh	r2, [r3]
  80:.\Temperature.c **** 
  81:.\Temperature.c ****     /* Put ADC to sleep after measurements are done. */
  82:.\Temperature.c ****     ADC_Sleep();
  68              		.loc 1 82 0
  69 0036 FFF7FEFF 		bl	ADC_Sleep
  83:.\Temperature.c **** }
  70              		.loc 1 83 0
  71 003a BD46     		mov	sp, r7
  72 003c 02B0     		add	sp, sp, #8
  73              		@ sp needed
  74 003e 80BD     		pop	{r7, pc}
  75              	.L3:
  76              		.align	2
  77              	.L2:
  78 0040 00000000 		.word	measuredTempratureCelsius
  79              		.cfi_endproc
  80              	.LFE37:
  81              		.size	MeasureTemperature, .-MeasureTemperature
  82              		.section	.text.GetMeasuredTemprature,"ax",%progbits
  83              		.align	2
  84              		.global	GetMeasuredTemprature
  85              		.code	16
ARM GAS  C:\Users\JOHNNY~1\AppData\Local\Temp\cckCyZSb.s 			page 4


  86              		.thumb_func
  87              		.type	GetMeasuredTemprature, %function
  88              	GetMeasuredTemprature:
  89              	.LFB38:
  84:.\Temperature.c **** 
  85:.\Temperature.c **** /*******************************************************************************
  86:.\Temperature.c **** * Function Name: GetMeasuredTemprature
  87:.\Temperature.c **** ********************************************************************************
  88:.\Temperature.c **** *
  89:.\Temperature.c **** * Summary:
  90:.\Temperature.c **** *   This function returns currently measured die temperature.
  91:.\Temperature.c **** *
  92:.\Temperature.c **** * Parameters:
  93:.\Temperature.c **** *  None
  94:.\Temperature.c **** *
  95:.\Temperature.c **** * Return:
  96:.\Temperature.c **** *  uint16: currently measured temperature
  97:.\Temperature.c **** *
  98:.\Temperature.c **** *******************************************************************************/
  99:.\Temperature.c **** uint16 GetMeasuredTemprature(void)
 100:.\Temperature.c **** {
  90              		.loc 1 100 0
  91              		.cfi_startproc
  92 0000 80B5     		push	{r7, lr}
  93              		.cfi_def_cfa_offset 8
  94              		.cfi_offset 7, -8
  95              		.cfi_offset 14, -4
  96 0002 00AF     		add	r7, sp, #0
  97              		.cfi_def_cfa_register 7
 101:.\Temperature.c ****     return measuredTempratureCelsius;
  98              		.loc 1 101 0
  99 0004 024B     		ldr	r3, .L6
 100 0006 1B88     		ldrh	r3, [r3]
 102:.\Temperature.c **** }
 101              		.loc 1 102 0
 102 0008 181C     		mov	r0, r3
 103 000a BD46     		mov	sp, r7
 104              		@ sp needed
 105 000c 80BD     		pop	{r7, pc}
 106              	.L7:
 107 000e C046     		.align	2
 108              	.L6:
 109 0010 00000000 		.word	measuredTempratureCelsius
 110              		.cfi_endproc
 111              	.LFE38:
 112              		.size	GetMeasuredTemprature, .-GetMeasuredTemprature
 113              		.text
 114              	.Letext0:
 115              		.file 2 "Generated_Source\\PSoC4/cytypes.h"
 116              		.file 3 "Generated_Source\\PSoC4/BLE_Stack.h"