ARM GAS  C:\Users\JOHNNY~1\AppData\Local\Temp\ccKTgi09.s 			page 1


   1              		.cpu cortex-m0
   2              		.fpu softvfp
   3              		.eabi_attribute 20, 1
   4              		.eabi_attribute 21, 1
   5              		.eabi_attribute 23, 3
   6              		.eabi_attribute 24, 1
   7              		.eabi_attribute 25, 1
   8              		.eabi_attribute 26, 1
   9              		.eabi_attribute 30, 6
  10              		.eabi_attribute 34, 0
  11              		.eabi_attribute 18, 4
  12              		.code	16
  13              		.file	"UART_1_INT.c"
  14              		.text
  15              	.Ltext0:
  16              		.cfi_sections	.debug_frame
  17              		.section	.text.UART_1_RXISR,"ax",%progbits
  18              		.align	2
  19              		.global	UART_1_RXISR
  20              		.code	16
  21              		.thumb_func
  22              		.type	UART_1_RXISR, %function
  23              	UART_1_RXISR:
  24              	.LFB37:
  25              		.file 1 ".\\Generated_Source\\PSoC4\\UART_1_INT.c"
   1:.\Generated_Source\PSoC4/UART_1_INT.c **** /*******************************************************************************
   2:.\Generated_Source\PSoC4/UART_1_INT.c **** * File Name: UART_1INT.c
   3:.\Generated_Source\PSoC4/UART_1_INT.c **** * Version 2.50
   4:.\Generated_Source\PSoC4/UART_1_INT.c **** *
   5:.\Generated_Source\PSoC4/UART_1_INT.c **** * Description:
   6:.\Generated_Source\PSoC4/UART_1_INT.c **** *  This file provides all Interrupt Service functionality of the UART component
   7:.\Generated_Source\PSoC4/UART_1_INT.c **** *
   8:.\Generated_Source\PSoC4/UART_1_INT.c **** ********************************************************************************
   9:.\Generated_Source\PSoC4/UART_1_INT.c **** * Copyright 2008-2015, Cypress Semiconductor Corporation.  All rights reserved.
  10:.\Generated_Source\PSoC4/UART_1_INT.c **** * You may use this file only in accordance with the license, terms, conditions,
  11:.\Generated_Source\PSoC4/UART_1_INT.c **** * disclaimers, and limitations in the end user license agreement accompanying
  12:.\Generated_Source\PSoC4/UART_1_INT.c **** * the software package with which this file was provided.
  13:.\Generated_Source\PSoC4/UART_1_INT.c **** *******************************************************************************/
  14:.\Generated_Source\PSoC4/UART_1_INT.c **** 
  15:.\Generated_Source\PSoC4/UART_1_INT.c **** #include "UART_1.h"
  16:.\Generated_Source\PSoC4/UART_1_INT.c **** 
  17:.\Generated_Source\PSoC4/UART_1_INT.c **** 
  18:.\Generated_Source\PSoC4/UART_1_INT.c **** 
  19:.\Generated_Source\PSoC4/UART_1_INT.c **** /***************************************
  20:.\Generated_Source\PSoC4/UART_1_INT.c **** * Custom Declarations
  21:.\Generated_Source\PSoC4/UART_1_INT.c **** ***************************************/
  22:.\Generated_Source\PSoC4/UART_1_INT.c **** /* `#START CUSTOM_DECLARATIONS` Place your declaration here */
  23:.\Generated_Source\PSoC4/UART_1_INT.c **** #include "main.h"
  24:.\Generated_Source\PSoC4/UART_1_INT.c **** /* `#END` */
  25:.\Generated_Source\PSoC4/UART_1_INT.c **** 
  26:.\Generated_Source\PSoC4/UART_1_INT.c **** #if (UART_1_RX_INTERRUPT_ENABLED && (UART_1_RX_ENABLED || UART_1_HD_ENABLED))
  27:.\Generated_Source\PSoC4/UART_1_INT.c ****     /*******************************************************************************
  28:.\Generated_Source\PSoC4/UART_1_INT.c ****     * Function Name: UART_1_RXISR
  29:.\Generated_Source\PSoC4/UART_1_INT.c ****     ********************************************************************************
  30:.\Generated_Source\PSoC4/UART_1_INT.c ****     *
  31:.\Generated_Source\PSoC4/UART_1_INT.c ****     * Summary:
  32:.\Generated_Source\PSoC4/UART_1_INT.c ****     *  Interrupt Service Routine for RX portion of the UART
ARM GAS  C:\Users\JOHNNY~1\AppData\Local\Temp\ccKTgi09.s 			page 2


  33:.\Generated_Source\PSoC4/UART_1_INT.c ****     *
  34:.\Generated_Source\PSoC4/UART_1_INT.c ****     * Parameters:
  35:.\Generated_Source\PSoC4/UART_1_INT.c ****     *  None.
  36:.\Generated_Source\PSoC4/UART_1_INT.c ****     *
  37:.\Generated_Source\PSoC4/UART_1_INT.c ****     * Return:
  38:.\Generated_Source\PSoC4/UART_1_INT.c ****     *  None.
  39:.\Generated_Source\PSoC4/UART_1_INT.c ****     *
  40:.\Generated_Source\PSoC4/UART_1_INT.c ****     * Global Variables:
  41:.\Generated_Source\PSoC4/UART_1_INT.c ****     *  UART_1_rxBuffer - RAM buffer pointer for save received data.
  42:.\Generated_Source\PSoC4/UART_1_INT.c ****     *  UART_1_rxBufferWrite - cyclic index for write to rxBuffer,
  43:.\Generated_Source\PSoC4/UART_1_INT.c ****     *     increments after each byte saved to buffer.
  44:.\Generated_Source\PSoC4/UART_1_INT.c ****     *  UART_1_rxBufferRead - cyclic index for read from rxBuffer,
  45:.\Generated_Source\PSoC4/UART_1_INT.c ****     *     checked to detect overflow condition.
  46:.\Generated_Source\PSoC4/UART_1_INT.c ****     *  UART_1_rxBufferOverflow - software overflow flag. Set to one
  47:.\Generated_Source\PSoC4/UART_1_INT.c ****     *     when UART_1_rxBufferWrite index overtakes
  48:.\Generated_Source\PSoC4/UART_1_INT.c ****     *     UART_1_rxBufferRead index.
  49:.\Generated_Source\PSoC4/UART_1_INT.c ****     *  UART_1_rxBufferLoopDetect - additional variable to detect overflow.
  50:.\Generated_Source\PSoC4/UART_1_INT.c ****     *     Set to one when UART_1_rxBufferWrite is equal to
  51:.\Generated_Source\PSoC4/UART_1_INT.c ****     *    UART_1_rxBufferRead
  52:.\Generated_Source\PSoC4/UART_1_INT.c ****     *  UART_1_rxAddressMode - this variable contains the Address mode,
  53:.\Generated_Source\PSoC4/UART_1_INT.c ****     *     selected in customizer or set by UART_SetRxAddressMode() API.
  54:.\Generated_Source\PSoC4/UART_1_INT.c ****     *  UART_1_rxAddressDetected - set to 1 when correct address received,
  55:.\Generated_Source\PSoC4/UART_1_INT.c ****     *     and analysed to store following addressed data bytes to the buffer.
  56:.\Generated_Source\PSoC4/UART_1_INT.c ****     *     When not correct address received, set to 0 to skip following data bytes.
  57:.\Generated_Source\PSoC4/UART_1_INT.c ****     *
  58:.\Generated_Source\PSoC4/UART_1_INT.c ****     *******************************************************************************/
  59:.\Generated_Source\PSoC4/UART_1_INT.c ****     CY_ISR(UART_1_RXISR)
  60:.\Generated_Source\PSoC4/UART_1_INT.c ****     {
  26              		.loc 1 60 0
  27              		.cfi_startproc
  28 0000 80B5     		push	{r7, lr}
  29              		.cfi_def_cfa_offset 8
  30              		.cfi_offset 7, -8
  31              		.cfi_offset 14, -4
  32 0002 82B0     		sub	sp, sp, #8
  33              		.cfi_def_cfa_offset 16
  34 0004 00AF     		add	r7, sp, #0
  35              		.cfi_def_cfa_register 7
  61:.\Generated_Source\PSoC4/UART_1_INT.c ****         uint8 readData;
  62:.\Generated_Source\PSoC4/UART_1_INT.c ****         uint8 readStatus;
  63:.\Generated_Source\PSoC4/UART_1_INT.c ****         uint8 increment_pointer = 0u;
  36              		.loc 1 63 0
  37 0006 FB1D     		add	r3, r7, #7
  38 0008 0022     		mov	r2, #0
  39 000a 1A70     		strb	r2, [r3]
  40              	.L7:
  64:.\Generated_Source\PSoC4/UART_1_INT.c **** 
  65:.\Generated_Source\PSoC4/UART_1_INT.c ****     #if(CY_PSOC3)
  66:.\Generated_Source\PSoC4/UART_1_INT.c ****         uint8 int_en;
  67:.\Generated_Source\PSoC4/UART_1_INT.c ****     #endif /* (CY_PSOC3) */
  68:.\Generated_Source\PSoC4/UART_1_INT.c **** 
  69:.\Generated_Source\PSoC4/UART_1_INT.c ****     #ifdef UART_1_RXISR_ENTRY_CALLBACK
  70:.\Generated_Source\PSoC4/UART_1_INT.c ****         UART_1_RXISR_EntryCallback();
  71:.\Generated_Source\PSoC4/UART_1_INT.c ****     #endif /* UART_1_RXISR_ENTRY_CALLBACK */
  72:.\Generated_Source\PSoC4/UART_1_INT.c **** 
  73:.\Generated_Source\PSoC4/UART_1_INT.c ****         /* User code required at start of ISR */
  74:.\Generated_Source\PSoC4/UART_1_INT.c ****         /* `#START UART_1_RXISR_START` */
ARM GAS  C:\Users\JOHNNY~1\AppData\Local\Temp\ccKTgi09.s 			page 3


  75:.\Generated_Source\PSoC4/UART_1_INT.c **** 
  76:.\Generated_Source\PSoC4/UART_1_INT.c ****         /* `#END` */
  77:.\Generated_Source\PSoC4/UART_1_INT.c **** 
  78:.\Generated_Source\PSoC4/UART_1_INT.c ****     #if(CY_PSOC3)   /* Make sure nested interrupt is enabled */
  79:.\Generated_Source\PSoC4/UART_1_INT.c ****         int_en = EA;
  80:.\Generated_Source\PSoC4/UART_1_INT.c ****         CyGlobalIntEnable;
  81:.\Generated_Source\PSoC4/UART_1_INT.c ****     #endif /* (CY_PSOC3) */
  82:.\Generated_Source\PSoC4/UART_1_INT.c **** 
  83:.\Generated_Source\PSoC4/UART_1_INT.c ****         do
  84:.\Generated_Source\PSoC4/UART_1_INT.c ****         {
  85:.\Generated_Source\PSoC4/UART_1_INT.c ****             /* Read receiver status register */
  86:.\Generated_Source\PSoC4/UART_1_INT.c ****             readStatus = UART_1_RXSTATUS_REG;
  41              		.loc 1 86 0
  42 000c 384A     		ldr	r2, .L8
  43 000e BB1D     		add	r3, r7, #6
  44 0010 1278     		ldrb	r2, [r2]
  45 0012 1A70     		strb	r2, [r3]
  87:.\Generated_Source\PSoC4/UART_1_INT.c ****             /* Copy the same status to readData variable for backward compatibility support 
  88:.\Generated_Source\PSoC4/UART_1_INT.c ****             *  of the user code in UART_1_RXISR_ERROR` section. 
  89:.\Generated_Source\PSoC4/UART_1_INT.c ****             */
  90:.\Generated_Source\PSoC4/UART_1_INT.c ****             readData = readStatus;
  46              		.loc 1 90 0
  47 0014 7B1D     		add	r3, r7, #5
  48 0016 BA1D     		add	r2, r7, #6
  49 0018 1278     		ldrb	r2, [r2]
  50 001a 1A70     		strb	r2, [r3]
  91:.\Generated_Source\PSoC4/UART_1_INT.c **** 
  92:.\Generated_Source\PSoC4/UART_1_INT.c ****             if((readStatus & (UART_1_RX_STS_BREAK | 
  93:.\Generated_Source\PSoC4/UART_1_INT.c ****                             UART_1_RX_STS_PAR_ERROR |
  94:.\Generated_Source\PSoC4/UART_1_INT.c ****                             UART_1_RX_STS_STOP_ERROR | 
  95:.\Generated_Source\PSoC4/UART_1_INT.c ****                             UART_1_RX_STS_OVERRUN)) != 0u)
  51              		.loc 1 95 0
  52 001c BB1D     		add	r3, r7, #6
  53 001e 1B78     		ldrb	r3, [r3]
  54 0020 1E22     		mov	r2, #30
  55 0022 1340     		and	r3, r2
  92:.\Generated_Source\PSoC4/UART_1_INT.c ****                             UART_1_RX_STS_PAR_ERROR |
  56              		.loc 1 92 0
  57 0024 0DD0     		beq	.L2
  96:.\Generated_Source\PSoC4/UART_1_INT.c ****             {
  97:.\Generated_Source\PSoC4/UART_1_INT.c ****                 /* ERROR handling. */
  98:.\Generated_Source\PSoC4/UART_1_INT.c ****                 UART_1_errorStatus |= readStatus & ( UART_1_RX_STS_BREAK | 
  58              		.loc 1 98 0
  59 0026 BB1D     		add	r3, r7, #6
  60 0028 1B78     		ldrb	r3, [r3]
  61 002a 1A1C     		add	r2, r3, #0
  62 002c 1E23     		mov	r3, #30
  63 002e 1340     		and	r3, r2
  64 0030 DAB2     		uxtb	r2, r3
  65 0032 304B     		ldr	r3, .L8+4
  66 0034 1B78     		ldrb	r3, [r3]
  67 0036 DBB2     		uxtb	r3, r3
  68 0038 1343     		orr	r3, r2
  69 003a DBB2     		uxtb	r3, r3
  70 003c DAB2     		uxtb	r2, r3
  71 003e 2D4B     		ldr	r3, .L8+4
  72 0040 1A70     		strb	r2, [r3]
ARM GAS  C:\Users\JOHNNY~1\AppData\Local\Temp\ccKTgi09.s 			page 4


  73              	.L2:
  99:.\Generated_Source\PSoC4/UART_1_INT.c ****                                                             UART_1_RX_STS_PAR_ERROR | 
 100:.\Generated_Source\PSoC4/UART_1_INT.c ****                                                             UART_1_RX_STS_STOP_ERROR | 
 101:.\Generated_Source\PSoC4/UART_1_INT.c ****                                                             UART_1_RX_STS_OVERRUN);
 102:.\Generated_Source\PSoC4/UART_1_INT.c ****                 /* `#START UART_1_RXISR_ERROR` */
 103:.\Generated_Source\PSoC4/UART_1_INT.c **** 
 104:.\Generated_Source\PSoC4/UART_1_INT.c ****                 /* `#END` */
 105:.\Generated_Source\PSoC4/UART_1_INT.c ****                 
 106:.\Generated_Source\PSoC4/UART_1_INT.c ****             #ifdef UART_1_RXISR_ERROR_CALLBACK
 107:.\Generated_Source\PSoC4/UART_1_INT.c ****                 UART_1_RXISR_ERROR_Callback();
 108:.\Generated_Source\PSoC4/UART_1_INT.c ****             #endif /* UART_1_RXISR_ERROR_CALLBACK */
 109:.\Generated_Source\PSoC4/UART_1_INT.c ****             }
 110:.\Generated_Source\PSoC4/UART_1_INT.c ****             
 111:.\Generated_Source\PSoC4/UART_1_INT.c ****             if((readStatus & UART_1_RX_STS_FIFO_NOTEMPTY) != 0u)
  74              		.loc 1 111 0
  75 0042 BB1D     		add	r3, r7, #6
  76 0044 1B78     		ldrb	r3, [r3]
  77 0046 2022     		mov	r2, #32
  78 0048 1340     		and	r3, r2
  79 004a 48D0     		beq	.L3
 112:.\Generated_Source\PSoC4/UART_1_INT.c ****             {
 113:.\Generated_Source\PSoC4/UART_1_INT.c ****                 /* Read data from the RX data register */
 114:.\Generated_Source\PSoC4/UART_1_INT.c ****                 readData = UART_1_RXDATA_REG;
  80              		.loc 1 114 0
  81 004c 2A4A     		ldr	r2, .L8+8
  82 004e 7B1D     		add	r3, r7, #5
  83 0050 1278     		ldrb	r2, [r2]
  84 0052 1A70     		strb	r2, [r3]
 115:.\Generated_Source\PSoC4/UART_1_INT.c ****                    /* `#START UART_1_RXISR_END` */
 116:.\Generated_Source\PSoC4/UART_1_INT.c ****         g_u8GPSData[g_u16GPSDataCount++] = readData;
  85              		.loc 1 116 0
  86 0054 294B     		ldr	r3, .L8+12
  87 0056 1B88     		ldrh	r3, [r3]
  88 0058 5A1C     		add	r2, r3, #1
  89 005a 91B2     		uxth	r1, r2
  90 005c 274A     		ldr	r2, .L8+12
  91 005e 1180     		strh	r1, [r2]
  92 0060 191C     		mov	r1, r3
  93 0062 274B     		ldr	r3, .L8+16
  94 0064 7A1D     		add	r2, r7, #5
  95 0066 1278     		ldrb	r2, [r2]
  96 0068 5A54     		strb	r2, [r3, r1]
 117:.\Generated_Source\PSoC4/UART_1_INT.c ****         if (g_u16GPSDataCount == MAX_UART_GPS_DATA_COUNT)
  97              		.loc 1 117 0
  98 006a 244B     		ldr	r3, .L8+12
  99 006c 1A88     		ldrh	r2, [r3]
 100 006e 8023     		mov	r3, #128
 101 0070 9B00     		lsl	r3, r3, #2
 102 0072 9A42     		cmp	r2, r3
 103 0074 02D1     		bne	.L4
 118:.\Generated_Source\PSoC4/UART_1_INT.c ****         {
 119:.\Generated_Source\PSoC4/UART_1_INT.c ****             g_u16GPSDataCount = 0;
 104              		.loc 1 119 0
 105 0076 214B     		ldr	r3, .L8+12
 106 0078 0022     		mov	r2, #0
 107 007a 1A80     		strh	r2, [r3]
 108              	.L4:
ARM GAS  C:\Users\JOHNNY~1\AppData\Local\Temp\ccKTgi09.s 			page 5


 120:.\Generated_Source\PSoC4/UART_1_INT.c ****         }
 121:.\Generated_Source\PSoC4/UART_1_INT.c ****         /* `#END` */
 122:.\Generated_Source\PSoC4/UART_1_INT.c ****             #if (UART_1_RXHW_ADDRESS_ENABLED)
 123:.\Generated_Source\PSoC4/UART_1_INT.c ****                 if(UART_1_rxAddressMode == (uint8)UART_1__B_UART__AM_SW_DETECT_TO_BUFFER)
 124:.\Generated_Source\PSoC4/UART_1_INT.c ****                 {
 125:.\Generated_Source\PSoC4/UART_1_INT.c ****                     if((readStatus & UART_1_RX_STS_MRKSPC) != 0u)
 126:.\Generated_Source\PSoC4/UART_1_INT.c ****                     {
 127:.\Generated_Source\PSoC4/UART_1_INT.c ****                         if ((readStatus & UART_1_RX_STS_ADDR_MATCH) != 0u)
 128:.\Generated_Source\PSoC4/UART_1_INT.c ****                         {
 129:.\Generated_Source\PSoC4/UART_1_INT.c ****                             UART_1_rxAddressDetected = 1u;
 130:.\Generated_Source\PSoC4/UART_1_INT.c ****                         }
 131:.\Generated_Source\PSoC4/UART_1_INT.c ****                         else
 132:.\Generated_Source\PSoC4/UART_1_INT.c ****                         {
 133:.\Generated_Source\PSoC4/UART_1_INT.c ****                             UART_1_rxAddressDetected = 0u;
 134:.\Generated_Source\PSoC4/UART_1_INT.c ****                         }
 135:.\Generated_Source\PSoC4/UART_1_INT.c ****                     }
 136:.\Generated_Source\PSoC4/UART_1_INT.c ****                     if(UART_1_rxAddressDetected != 0u)
 137:.\Generated_Source\PSoC4/UART_1_INT.c ****                     {   /* Store only addressed data */
 138:.\Generated_Source\PSoC4/UART_1_INT.c ****                         UART_1_rxBuffer[UART_1_rxBufferWrite] = readData;
 139:.\Generated_Source\PSoC4/UART_1_INT.c ****                         increment_pointer = 1u;
 140:.\Generated_Source\PSoC4/UART_1_INT.c ****                     }
 141:.\Generated_Source\PSoC4/UART_1_INT.c ****                 }
 142:.\Generated_Source\PSoC4/UART_1_INT.c ****                 else /* Without software addressing */
 143:.\Generated_Source\PSoC4/UART_1_INT.c ****                 {
 144:.\Generated_Source\PSoC4/UART_1_INT.c ****                     UART_1_rxBuffer[UART_1_rxBufferWrite] = readData;
 145:.\Generated_Source\PSoC4/UART_1_INT.c ****                     increment_pointer = 1u;
 146:.\Generated_Source\PSoC4/UART_1_INT.c ****                 }
 147:.\Generated_Source\PSoC4/UART_1_INT.c ****             #else  /* Without addressing */
 148:.\Generated_Source\PSoC4/UART_1_INT.c ****                 UART_1_rxBuffer[UART_1_rxBufferWrite] = readData;
 109              		.loc 1 148 0
 110 007c 214B     		ldr	r3, .L8+20
 111 007e 1B78     		ldrb	r3, [r3]
 112 0080 DBB2     		uxtb	r3, r3
 113 0082 191C     		mov	r1, r3
 114 0084 204B     		ldr	r3, .L8+24
 115 0086 7A1D     		add	r2, r7, #5
 116 0088 1278     		ldrb	r2, [r2]
 117 008a 5A54     		strb	r2, [r3, r1]
 149:.\Generated_Source\PSoC4/UART_1_INT.c ****                 increment_pointer = 1u;
 118              		.loc 1 149 0
 119 008c FB1D     		add	r3, r7, #7
 120 008e 0122     		mov	r2, #1
 121 0090 1A70     		strb	r2, [r3]
 150:.\Generated_Source\PSoC4/UART_1_INT.c ****             #endif /* (UART_1_RXHW_ADDRESS_ENABLED) */
 151:.\Generated_Source\PSoC4/UART_1_INT.c **** 
 152:.\Generated_Source\PSoC4/UART_1_INT.c ****                 /* Do not increment buffer pointer when skip not addressed data */
 153:.\Generated_Source\PSoC4/UART_1_INT.c ****                 if(increment_pointer != 0u)
 122              		.loc 1 153 0
 123 0092 FB1D     		add	r3, r7, #7
 124 0094 1B78     		ldrb	r3, [r3]
 125 0096 002B     		cmp	r3, #0
 126 0098 21D0     		beq	.L3
 154:.\Generated_Source\PSoC4/UART_1_INT.c ****                 {
 155:.\Generated_Source\PSoC4/UART_1_INT.c ****                     if(UART_1_rxBufferLoopDetect != 0u)
 127              		.loc 1 155 0
 128 009a 1C4B     		ldr	r3, .L8+28
 129 009c 1B78     		ldrb	r3, [r3]
ARM GAS  C:\Users\JOHNNY~1\AppData\Local\Temp\ccKTgi09.s 			page 6


 130 009e DBB2     		uxtb	r3, r3
 131 00a0 002B     		cmp	r3, #0
 132 00a2 02D0     		beq	.L5
 156:.\Generated_Source\PSoC4/UART_1_INT.c ****                     {   /* Set Software Buffer status Overflow */
 157:.\Generated_Source\PSoC4/UART_1_INT.c ****                         UART_1_rxBufferOverflow = 1u;
 133              		.loc 1 157 0
 134 00a4 1A4B     		ldr	r3, .L8+32
 135 00a6 0122     		mov	r2, #1
 136 00a8 1A70     		strb	r2, [r3]
 137              	.L5:
 158:.\Generated_Source\PSoC4/UART_1_INT.c ****                     }
 159:.\Generated_Source\PSoC4/UART_1_INT.c ****                     /* Set next pointer. */
 160:.\Generated_Source\PSoC4/UART_1_INT.c ****                     UART_1_rxBufferWrite++;
 138              		.loc 1 160 0
 139 00aa 164B     		ldr	r3, .L8+20
 140 00ac 1B78     		ldrb	r3, [r3]
 141 00ae DBB2     		uxtb	r3, r3
 142 00b0 0133     		add	r3, r3, #1
 143 00b2 DAB2     		uxtb	r2, r3
 144 00b4 134B     		ldr	r3, .L8+20
 145 00b6 1A70     		strb	r2, [r3]
 161:.\Generated_Source\PSoC4/UART_1_INT.c **** 
 162:.\Generated_Source\PSoC4/UART_1_INT.c ****                     /* Check pointer for a loop condition */
 163:.\Generated_Source\PSoC4/UART_1_INT.c ****                     if(UART_1_rxBufferWrite >= UART_1_RX_BUFFER_SIZE)
 146              		.loc 1 163 0
 147 00b8 124B     		ldr	r3, .L8+20
 148 00ba 1B78     		ldrb	r3, [r3]
 149 00bc DBB2     		uxtb	r3, r3
 150 00be 072B     		cmp	r3, #7
 151 00c0 02D9     		bls	.L6
 164:.\Generated_Source\PSoC4/UART_1_INT.c ****                     {
 165:.\Generated_Source\PSoC4/UART_1_INT.c ****                         UART_1_rxBufferWrite = 0u;
 152              		.loc 1 165 0
 153 00c2 104B     		ldr	r3, .L8+20
 154 00c4 0022     		mov	r2, #0
 155 00c6 1A70     		strb	r2, [r3]
 156              	.L6:
 166:.\Generated_Source\PSoC4/UART_1_INT.c ****                     }
 167:.\Generated_Source\PSoC4/UART_1_INT.c **** 
 168:.\Generated_Source\PSoC4/UART_1_INT.c ****                     /* Detect pre-overload condition and set flag */
 169:.\Generated_Source\PSoC4/UART_1_INT.c ****                     if(UART_1_rxBufferWrite == UART_1_rxBufferRead)
 157              		.loc 1 169 0
 158 00c8 0E4B     		ldr	r3, .L8+20
 159 00ca 1B78     		ldrb	r3, [r3]
 160 00cc DAB2     		uxtb	r2, r3
 161 00ce 114B     		ldr	r3, .L8+36
 162 00d0 1B78     		ldrb	r3, [r3]
 163 00d2 DBB2     		uxtb	r3, r3
 164 00d4 9A42     		cmp	r2, r3
 165 00d6 02D1     		bne	.L3
 170:.\Generated_Source\PSoC4/UART_1_INT.c ****                     {
 171:.\Generated_Source\PSoC4/UART_1_INT.c ****                         UART_1_rxBufferLoopDetect = 1u;
 166              		.loc 1 171 0
 167 00d8 0C4B     		ldr	r3, .L8+28
 168 00da 0122     		mov	r2, #1
 169 00dc 1A70     		strb	r2, [r3]
 170              	.L3:
ARM GAS  C:\Users\JOHNNY~1\AppData\Local\Temp\ccKTgi09.s 			page 7


 172:.\Generated_Source\PSoC4/UART_1_INT.c ****                         /* When Hardware Flow Control selected */
 173:.\Generated_Source\PSoC4/UART_1_INT.c ****                         #if (UART_1_FLOW_CONTROL != 0u)
 174:.\Generated_Source\PSoC4/UART_1_INT.c ****                             /* Disable RX interrupt mask, it is enabled when user read data from th
 175:.\Generated_Source\PSoC4/UART_1_INT.c ****                             UART_1_RXSTATUS_MASK_REG  &= (uint8)~UART_1_RX_STS_FIFO_NOTEMPTY;
 176:.\Generated_Source\PSoC4/UART_1_INT.c ****                             CyIntClearPending(UART_1_RX_VECT_NUM);
 177:.\Generated_Source\PSoC4/UART_1_INT.c ****                             break; /* Break the reading of the FIFO loop, leave the data there for 
 178:.\Generated_Source\PSoC4/UART_1_INT.c ****                         #endif /* (UART_1_FLOW_CONTROL != 0u) */
 179:.\Generated_Source\PSoC4/UART_1_INT.c ****                     }
 180:.\Generated_Source\PSoC4/UART_1_INT.c ****                 }
 181:.\Generated_Source\PSoC4/UART_1_INT.c ****             }
 182:.\Generated_Source\PSoC4/UART_1_INT.c ****         }while((readStatus & UART_1_RX_STS_FIFO_NOTEMPTY) != 0u);
 171              		.loc 1 182 0
 172 00de BB1D     		add	r3, r7, #6
 173 00e0 1B78     		ldrb	r3, [r3]
 174 00e2 2022     		mov	r2, #32
 175 00e4 1340     		and	r3, r2
 176 00e6 91D1     		bne	.L7
 183:.\Generated_Source\PSoC4/UART_1_INT.c **** 
 184:.\Generated_Source\PSoC4/UART_1_INT.c ****         /* User code required at end of ISR (Optional) */
 185:.\Generated_Source\PSoC4/UART_1_INT.c ****         /* `#START UART_1_RXISR_END` */
 186:.\Generated_Source\PSoC4/UART_1_INT.c ****         /* `#END` */
 187:.\Generated_Source\PSoC4/UART_1_INT.c **** 
 188:.\Generated_Source\PSoC4/UART_1_INT.c ****     #ifdef UART_1_RXISR_EXIT_CALLBACK
 189:.\Generated_Source\PSoC4/UART_1_INT.c ****         UART_1_RXISR_ExitCallback();
 190:.\Generated_Source\PSoC4/UART_1_INT.c ****     #endif /* UART_1_RXISR_EXIT_CALLBACK */
 191:.\Generated_Source\PSoC4/UART_1_INT.c **** 
 192:.\Generated_Source\PSoC4/UART_1_INT.c ****     #if(CY_PSOC3)
 193:.\Generated_Source\PSoC4/UART_1_INT.c ****         EA = int_en;
 194:.\Generated_Source\PSoC4/UART_1_INT.c ****     #endif /* (CY_PSOC3) */
 195:.\Generated_Source\PSoC4/UART_1_INT.c ****     }
 177              		.loc 1 195 0
 178 00e8 BD46     		mov	sp, r7
 179 00ea 02B0     		add	sp, sp, #8
 180              		@ sp needed
 181 00ec 80BD     		pop	{r7, pc}
 182              	.L9:
 183 00ee C046     		.align	2
 184              	.L8:
 185 00f0 61000F40 		.word	1074724961
 186 00f4 00000000 		.word	UART_1_errorStatus
 187 00f8 41000F40 		.word	1074724929
 188 00fc 00000000 		.word	g_u16GPSDataCount
 189 0100 00000000 		.word	g_u8GPSData
 190 0104 00000000 		.word	UART_1_rxBufferWrite
 191 0108 00000000 		.word	UART_1_rxBuffer
 192 010c 00000000 		.word	UART_1_rxBufferLoopDetect
 193 0110 00000000 		.word	UART_1_rxBufferOverflow
 194 0114 00000000 		.word	UART_1_rxBufferRead
 195              		.cfi_endproc
 196              	.LFE37:
 197              		.size	UART_1_RXISR, .-UART_1_RXISR
 198              		.text
 199              	.Letext0:
 200              		.file 2 ".\\Generated_Source\\PSoC4\\cytypes.h"
 201              		.file 3 ".\\Generated_Source\\PSoC4\\UART_1.h"
 202              		.file 4 "./main.h"